
build/test/simple_test_mix/test:     file format elf64-x86-64


Disassembly of section .init:

0000000000001000 <_init>:
    1000:	f3 0f 1e fa          	endbr64 
    1004:	48 83 ec 08          	sub    $0x8,%rsp
    1008:	48 8b 05 d9 7f 00 00 	mov    0x7fd9(%rip),%rax        # 8fe8 <__gmon_start__@Base>
    100f:	48 85 c0             	test   %rax,%rax
    1012:	74 02                	je     1016 <_init+0x16>
    1014:	ff d0                	call   *%rax
    1016:	48 83 c4 08          	add    $0x8,%rsp
    101a:	c3                   	ret    

Disassembly of section .plt:

0000000000001020 <.plt>:
    1020:	ff 35 ea 7e 00 00    	push   0x7eea(%rip)        # 8f10 <_GLOBAL_OFFSET_TABLE_+0x8>
    1026:	f2 ff 25 eb 7e 00 00 	bnd jmp *0x7eeb(%rip)        # 8f18 <_GLOBAL_OFFSET_TABLE_+0x10>
    102d:	0f 1f 00             	nopl   (%rax)
    1030:	f3 0f 1e fa          	endbr64 
    1034:	68 00 00 00 00       	push   $0x0
    1039:	f2 e9 e1 ff ff ff    	bnd jmp 1020 <_init+0x20>
    103f:	90                   	nop
    1040:	f3 0f 1e fa          	endbr64 
    1044:	68 01 00 00 00       	push   $0x1
    1049:	f2 e9 d1 ff ff ff    	bnd jmp 1020 <_init+0x20>
    104f:	90                   	nop
    1050:	f3 0f 1e fa          	endbr64 
    1054:	68 02 00 00 00       	push   $0x2
    1059:	f2 e9 c1 ff ff ff    	bnd jmp 1020 <_init+0x20>
    105f:	90                   	nop
    1060:	f3 0f 1e fa          	endbr64 
    1064:	68 03 00 00 00       	push   $0x3
    1069:	f2 e9 b1 ff ff ff    	bnd jmp 1020 <_init+0x20>
    106f:	90                   	nop
    1070:	f3 0f 1e fa          	endbr64 
    1074:	68 04 00 00 00       	push   $0x4
    1079:	f2 e9 a1 ff ff ff    	bnd jmp 1020 <_init+0x20>
    107f:	90                   	nop
    1080:	f3 0f 1e fa          	endbr64 
    1084:	68 05 00 00 00       	push   $0x5
    1089:	f2 e9 91 ff ff ff    	bnd jmp 1020 <_init+0x20>
    108f:	90                   	nop
    1090:	f3 0f 1e fa          	endbr64 
    1094:	68 06 00 00 00       	push   $0x6
    1099:	f2 e9 81 ff ff ff    	bnd jmp 1020 <_init+0x20>
    109f:	90                   	nop
    10a0:	f3 0f 1e fa          	endbr64 
    10a4:	68 07 00 00 00       	push   $0x7
    10a9:	f2 e9 71 ff ff ff    	bnd jmp 1020 <_init+0x20>
    10af:	90                   	nop
    10b0:	f3 0f 1e fa          	endbr64 
    10b4:	68 08 00 00 00       	push   $0x8
    10b9:	f2 e9 61 ff ff ff    	bnd jmp 1020 <_init+0x20>
    10bf:	90                   	nop
    10c0:	f3 0f 1e fa          	endbr64 
    10c4:	68 09 00 00 00       	push   $0x9
    10c9:	f2 e9 51 ff ff ff    	bnd jmp 1020 <_init+0x20>
    10cf:	90                   	nop
    10d0:	f3 0f 1e fa          	endbr64 
    10d4:	68 0a 00 00 00       	push   $0xa
    10d9:	f2 e9 41 ff ff ff    	bnd jmp 1020 <_init+0x20>
    10df:	90                   	nop
    10e0:	f3 0f 1e fa          	endbr64 
    10e4:	68 0b 00 00 00       	push   $0xb
    10e9:	f2 e9 31 ff ff ff    	bnd jmp 1020 <_init+0x20>
    10ef:	90                   	nop
    10f0:	f3 0f 1e fa          	endbr64 
    10f4:	68 0c 00 00 00       	push   $0xc
    10f9:	f2 e9 21 ff ff ff    	bnd jmp 1020 <_init+0x20>
    10ff:	90                   	nop
    1100:	f3 0f 1e fa          	endbr64 
    1104:	68 0d 00 00 00       	push   $0xd
    1109:	f2 e9 11 ff ff ff    	bnd jmp 1020 <_init+0x20>
    110f:	90                   	nop
    1110:	f3 0f 1e fa          	endbr64 
    1114:	68 0e 00 00 00       	push   $0xe
    1119:	f2 e9 01 ff ff ff    	bnd jmp 1020 <_init+0x20>
    111f:	90                   	nop
    1120:	f3 0f 1e fa          	endbr64 
    1124:	68 0f 00 00 00       	push   $0xf
    1129:	f2 e9 f1 fe ff ff    	bnd jmp 1020 <_init+0x20>
    112f:	90                   	nop
    1130:	f3 0f 1e fa          	endbr64 
    1134:	68 10 00 00 00       	push   $0x10
    1139:	f2 e9 e1 fe ff ff    	bnd jmp 1020 <_init+0x20>
    113f:	90                   	nop
    1140:	f3 0f 1e fa          	endbr64 
    1144:	68 11 00 00 00       	push   $0x11
    1149:	f2 e9 d1 fe ff ff    	bnd jmp 1020 <_init+0x20>
    114f:	90                   	nop
    1150:	f3 0f 1e fa          	endbr64 
    1154:	68 12 00 00 00       	push   $0x12
    1159:	f2 e9 c1 fe ff ff    	bnd jmp 1020 <_init+0x20>
    115f:	90                   	nop
    1160:	f3 0f 1e fa          	endbr64 
    1164:	68 13 00 00 00       	push   $0x13
    1169:	f2 e9 b1 fe ff ff    	bnd jmp 1020 <_init+0x20>
    116f:	90                   	nop
    1170:	f3 0f 1e fa          	endbr64 
    1174:	68 14 00 00 00       	push   $0x14
    1179:	f2 e9 a1 fe ff ff    	bnd jmp 1020 <_init+0x20>
    117f:	90                   	nop
    1180:	f3 0f 1e fa          	endbr64 
    1184:	68 15 00 00 00       	push   $0x15
    1189:	f2 e9 91 fe ff ff    	bnd jmp 1020 <_init+0x20>
    118f:	90                   	nop

Disassembly of section .plt.got:

0000000000001190 <__cxa_finalize@plt>:
    1190:	f3 0f 1e fa          	endbr64 
    1194:	f2 ff 25 35 7e 00 00 	bnd jmp *0x7e35(%rip)        # 8fd0 <__cxa_finalize@GLIBC_2.2.5>
    119b:	0f 1f 44 00 00       	nopl   0x0(%rax,%rax,1)

Disassembly of section .plt.sec:

00000000000011a0 <__printf_chk@plt>:
    11a0:	f3 0f 1e fa          	endbr64 
    11a4:	f2 ff 25 75 7d 00 00 	bnd jmp *0x7d75(%rip)        # 8f20 <__printf_chk@GLIBC_2.3.4>
    11ab:	0f 1f 44 00 00       	nopl   0x0(%rax,%rax,1)

00000000000011b0 <printf@plt>:
    11b0:	f3 0f 1e fa          	endbr64 
    11b4:	f2 ff 25 6d 7d 00 00 	bnd jmp *0x7d6d(%rip)        # 8f28 <printf@GLIBC_2.2.5>
    11bb:	0f 1f 44 00 00       	nopl   0x0(%rax,%rax,1)

00000000000011c0 <_ZSt17__throw_bad_allocv@plt>:
    11c0:	f3 0f 1e fa          	endbr64 
    11c4:	f2 ff 25 65 7d 00 00 	bnd jmp *0x7d65(%rip)        # 8f30 <_ZSt17__throw_bad_allocv@GLIBCXX_3.4>
    11cb:	0f 1f 44 00 00       	nopl   0x0(%rax,%rax,1)

00000000000011d0 <__cxa_begin_catch@plt>:
    11d0:	f3 0f 1e fa          	endbr64 
    11d4:	f2 ff 25 5d 7d 00 00 	bnd jmp *0x7d5d(%rip)        # 8f38 <__cxa_begin_catch@CXXABI_1.3>
    11db:	0f 1f 44 00 00       	nopl   0x0(%rax,%rax,1)

00000000000011e0 <_ZSt20__throw_length_errorPKc@plt>:
    11e0:	f3 0f 1e fa          	endbr64 
    11e4:	f2 ff 25 55 7d 00 00 	bnd jmp *0x7d55(%rip)        # 8f40 <_ZSt20__throw_length_errorPKc@GLIBCXX_3.4>
    11eb:	0f 1f 44 00 00       	nopl   0x0(%rax,%rax,1)

00000000000011f0 <_ZSt28__throw_bad_array_new_lengthv@plt>:
    11f0:	f3 0f 1e fa          	endbr64 
    11f4:	f2 ff 25 4d 7d 00 00 	bnd jmp *0x7d4d(%rip)        # 8f48 <_ZSt28__throw_bad_array_new_lengthv@GLIBCXX_3.4.29>
    11fb:	0f 1f 44 00 00       	nopl   0x0(%rax,%rax,1)

0000000000001200 <memcpy@plt>:
    1200:	f3 0f 1e fa          	endbr64 
    1204:	f2 ff 25 45 7d 00 00 	bnd jmp *0x7d45(%rip)        # 8f50 <memcpy@GLIBC_2.14>
    120b:	0f 1f 44 00 00       	nopl   0x0(%rax,%rax,1)

0000000000001210 <__cxa_atexit@plt>:
    1210:	f3 0f 1e fa          	endbr64 
    1214:	f2 ff 25 3d 7d 00 00 	bnd jmp *0x7d3d(%rip)        # 8f58 <__cxa_atexit@GLIBC_2.2.5>
    121b:	0f 1f 44 00 00       	nopl   0x0(%rax,%rax,1)

0000000000001220 <clock_gettime@plt>:
    1220:	f3 0f 1e fa          	endbr64 
    1224:	f2 ff 25 35 7d 00 00 	bnd jmp *0x7d35(%rip)        # 8f60 <clock_gettime@GLIBC_2.17>
    122b:	0f 1f 44 00 00       	nopl   0x0(%rax,%rax,1)

0000000000001230 <_Znwm@plt>:
    1230:	f3 0f 1e fa          	endbr64 
    1234:	f2 ff 25 2d 7d 00 00 	bnd jmp *0x7d2d(%rip)        # 8f68 <_Znwm@GLIBCXX_3.4>
    123b:	0f 1f 44 00 00       	nopl   0x0(%rax,%rax,1)

0000000000001240 <_ZdlPvm@plt>:
    1240:	f3 0f 1e fa          	endbr64 
    1244:	f2 ff 25 25 7d 00 00 	bnd jmp *0x7d25(%rip)        # 8f70 <_ZdlPvm@CXXABI_1.3.9>
    124b:	0f 1f 44 00 00       	nopl   0x0(%rax,%rax,1)

0000000000001250 <__stack_chk_fail@plt>:
    1250:	f3 0f 1e fa          	endbr64 
    1254:	f2 ff 25 1d 7d 00 00 	bnd jmp *0x7d1d(%rip)        # 8f78 <__stack_chk_fail@GLIBC_2.4>
    125b:	0f 1f 44 00 00       	nopl   0x0(%rax,%rax,1)

0000000000001260 <free@plt>:
    1260:	f3 0f 1e fa          	endbr64 
    1264:	f2 ff 25 15 7d 00 00 	bnd jmp *0x7d15(%rip)        # 8f80 <free@GLIBC_2.2.5>
    126b:	0f 1f 44 00 00       	nopl   0x0(%rax,%rax,1)

0000000000001270 <malloc@plt>:
    1270:	f3 0f 1e fa          	endbr64 
    1274:	f2 ff 25 0d 7d 00 00 	bnd jmp *0x7d0d(%rip)        # 8f88 <malloc@GLIBC_2.2.5>
    127b:	0f 1f 44 00 00       	nopl   0x0(%rax,%rax,1)

0000000000001280 <putchar@plt>:
    1280:	f3 0f 1e fa          	endbr64 
    1284:	f2 ff 25 05 7d 00 00 	bnd jmp *0x7d05(%rip)        # 8f90 <putchar@GLIBC_2.2.5>
    128b:	0f 1f 44 00 00       	nopl   0x0(%rax,%rax,1)

0000000000001290 <usleep@plt>:
    1290:	f3 0f 1e fa          	endbr64 
    1294:	f2 ff 25 fd 7c 00 00 	bnd jmp *0x7cfd(%rip)        # 8f98 <usleep@GLIBC_2.2.5>
    129b:	0f 1f 44 00 00       	nopl   0x0(%rax,%rax,1)

00000000000012a0 <__cxa_rethrow@plt>:
    12a0:	f3 0f 1e fa          	endbr64 
    12a4:	f2 ff 25 f5 7c 00 00 	bnd jmp *0x7cf5(%rip)        # 8fa0 <__cxa_rethrow@CXXABI_1.3>
    12ab:	0f 1f 44 00 00       	nopl   0x0(%rax,%rax,1)

00000000000012b0 <_ZNSt8ios_base4InitC1Ev@plt>:
    12b0:	f3 0f 1e fa          	endbr64 
    12b4:	f2 ff 25 ed 7c 00 00 	bnd jmp *0x7ced(%rip)        # 8fa8 <_ZNSt8ios_base4InitC1Ev@GLIBCXX_3.4>
    12bb:	0f 1f 44 00 00       	nopl   0x0(%rax,%rax,1)

00000000000012c0 <puts@plt>:
    12c0:	f3 0f 1e fa          	endbr64 
    12c4:	f2 ff 25 e5 7c 00 00 	bnd jmp *0x7ce5(%rip)        # 8fb0 <puts@GLIBC_2.2.5>
    12cb:	0f 1f 44 00 00       	nopl   0x0(%rax,%rax,1)

00000000000012d0 <memmove@plt>:
    12d0:	f3 0f 1e fa          	endbr64 
    12d4:	f2 ff 25 dd 7c 00 00 	bnd jmp *0x7cdd(%rip)        # 8fb8 <memmove@GLIBC_2.2.5>
    12db:	0f 1f 44 00 00       	nopl   0x0(%rax,%rax,1)

00000000000012e0 <__cxa_end_catch@plt>:
    12e0:	f3 0f 1e fa          	endbr64 
    12e4:	f2 ff 25 d5 7c 00 00 	bnd jmp *0x7cd5(%rip)        # 8fc0 <__cxa_end_catch@CXXABI_1.3>
    12eb:	0f 1f 44 00 00       	nopl   0x0(%rax,%rax,1)

00000000000012f0 <_Unwind_Resume@plt>:
    12f0:	f3 0f 1e fa          	endbr64 
    12f4:	f2 ff 25 cd 7c 00 00 	bnd jmp *0x7ccd(%rip)        # 8fc8 <_Unwind_Resume@GCC_3.0>
    12fb:	0f 1f 44 00 00       	nopl   0x0(%rax,%rax,1)

Disassembly of section .text:

0000000000001300 <_start>:
    1300:	f3 0f 1e fa          	endbr64 
    1304:	31 ed                	xor    %ebp,%ebp
    1306:	49 89 d1             	mov    %rdx,%r9
    1309:	5e                   	pop    %rsi
    130a:	48 89 e2             	mov    %rsp,%rdx
    130d:	48 83 e4 f0          	and    $0xfffffffffffffff0,%rsp
    1311:	50                   	push   %rax
    1312:	54                   	push   %rsp
    1313:	45 31 c0             	xor    %r8d,%r8d
    1316:	31 c9                	xor    %ecx,%ecx
    1318:	48 8d 3d b0 20 00 00 	lea    0x20b0(%rip),%rdi        # 33cf <main>
    131f:	ff 15 b3 7c 00 00    	call   *0x7cb3(%rip)        # 8fd8 <__libc_start_main@GLIBC_2.34>
    1325:	f4                   	hlt    
    1326:	66 2e 0f 1f 84 00 00 	cs nopw 0x0(%rax,%rax,1)
    132d:	00 00 00 

0000000000001330 <deregister_tm_clones>:
    1330:	48 8d 3d f9 7c 00 00 	lea    0x7cf9(%rip),%rdi        # 9030 <__TMC_END__>
    1337:	48 8d 05 f2 7c 00 00 	lea    0x7cf2(%rip),%rax        # 9030 <__TMC_END__>
    133e:	48 39 f8             	cmp    %rdi,%rax
    1341:	74 15                	je     1358 <deregister_tm_clones+0x28>
    1343:	48 8b 05 96 7c 00 00 	mov    0x7c96(%rip),%rax        # 8fe0 <_ITM_deregisterTMCloneTable@Base>
    134a:	48 85 c0             	test   %rax,%rax
    134d:	74 09                	je     1358 <deregister_tm_clones+0x28>
    134f:	ff e0                	jmp    *%rax
    1351:	0f 1f 80 00 00 00 00 	nopl   0x0(%rax)
    1358:	c3                   	ret    
    1359:	0f 1f 80 00 00 00 00 	nopl   0x0(%rax)

0000000000001360 <register_tm_clones>:
    1360:	48 8d 3d c9 7c 00 00 	lea    0x7cc9(%rip),%rdi        # 9030 <__TMC_END__>
    1367:	48 8d 35 c2 7c 00 00 	lea    0x7cc2(%rip),%rsi        # 9030 <__TMC_END__>
    136e:	48 29 fe             	sub    %rdi,%rsi
    1371:	48 89 f0             	mov    %rsi,%rax
    1374:	48 c1 ee 3f          	shr    $0x3f,%rsi
    1378:	48 c1 f8 03          	sar    $0x3,%rax
    137c:	48 01 c6             	add    %rax,%rsi
    137f:	48 d1 fe             	sar    %rsi
    1382:	74 14                	je     1398 <register_tm_clones+0x38>
    1384:	48 8b 05 65 7c 00 00 	mov    0x7c65(%rip),%rax        # 8ff0 <_ITM_registerTMCloneTable@Base>
    138b:	48 85 c0             	test   %rax,%rax
    138e:	74 08                	je     1398 <register_tm_clones+0x38>
    1390:	ff e0                	jmp    *%rax
    1392:	66 0f 1f 44 00 00    	nopw   0x0(%rax,%rax,1)
    1398:	c3                   	ret    
    1399:	0f 1f 80 00 00 00 00 	nopl   0x0(%rax)

00000000000013a0 <__do_global_dtors_aux>:
    13a0:	f3 0f 1e fa          	endbr64 
    13a4:	80 3d 95 7c 00 00 00 	cmpb   $0x0,0x7c95(%rip)        # 9040 <completed.0>
    13ab:	75 2b                	jne    13d8 <__do_global_dtors_aux+0x38>
    13ad:	55                   	push   %rbp
    13ae:	48 83 3d 1a 7c 00 00 	cmpq   $0x0,0x7c1a(%rip)        # 8fd0 <__cxa_finalize@GLIBC_2.2.5>
    13b5:	00 
    13b6:	48 89 e5             	mov    %rsp,%rbp
    13b9:	74 0c                	je     13c7 <__do_global_dtors_aux+0x27>
    13bb:	48 8b 3d 46 7c 00 00 	mov    0x7c46(%rip),%rdi        # 9008 <__dso_handle>
    13c2:	e8 c9 fd ff ff       	call   1190 <__cxa_finalize@plt>
    13c7:	e8 64 ff ff ff       	call   1330 <deregister_tm_clones>
    13cc:	c6 05 6d 7c 00 00 01 	movb   $0x1,0x7c6d(%rip)        # 9040 <completed.0>
    13d3:	5d                   	pop    %rbp
    13d4:	c3                   	ret    
    13d5:	0f 1f 00             	nopl   (%rax)
    13d8:	c3                   	ret    
    13d9:	0f 1f 80 00 00 00 00 	nopl   0x0(%rax)

00000000000013e0 <frame_dummy>:
    13e0:	f3 0f 1e fa          	endbr64 
    13e4:	e9 77 ff ff ff       	jmp    1360 <register_tm_clones>
    13e9:	0f 1f 80 00 00 00 00 	nopl   0x0(%rax)

00000000000013f0 <_ZN3nb123nb__request_send_bufferEv>:
    13f0:	f3 0f 1e fa          	endbr64 
    13f4:	bf 00 04 00 00       	mov    $0x400,%edi
    13f9:	e9 72 fe ff ff       	jmp    1270 <malloc@plt>
    13fe:	66 90                	xchg   %ax,%ax

0000000000001400 <_ZN3nb122nb__return_send_bufferEPc>:
    1400:	f3 0f 1e fa          	endbr64 
    1404:	e9 57 fe ff ff       	jmp    1260 <free@plt>
    1409:	0f 1f 80 00 00 00 00 	nopl   0x0(%rax)

0000000000001410 <_ZN3nb118nb__new_data_queueEv>:
    1410:	f3 0f 1e fa          	endbr64 
    1414:	48 83 ec 08          	sub    $0x8,%rsp
    1418:	bf 08 18 00 00       	mov    $0x1808,%edi
    141d:	e8 4e fe ff ff       	call   1270 <malloc@plt>
    1422:	c7 80 00 18 00 00 00 	movl   $0x0,0x1800(%rax)
    1429:	00 00 00 
    142c:	48 83 c4 08          	add    $0x8,%rsp
    1430:	c3                   	ret    
    1431:	66 66 2e 0f 1f 84 00 	data16 cs nopw 0x0(%rax,%rax,1)
    1438:	00 00 00 00 
    143c:	0f 1f 40 00          	nopl   0x0(%rax)

0000000000001440 <_ZN3nb119nb__free_data_queueEP12data_queue_t>:
    1440:	f3 0f 1e fa          	endbr64 
    1444:	e9 17 fe ff ff       	jmp    1260 <free@plt>
    1449:	0f 1f 80 00 00 00 00 	nopl   0x0(%rax)

0000000000001450 <_ZN3nb121nb__insert_data_queueEP12data_queue_tPci>:
    1450:	f3 0f 1e fa          	endbr64 
    1454:	48 63 87 00 18 00 00 	movslq 0x1800(%rdi),%rax
    145b:	8d 48 01             	lea    0x1(%rax),%ecx
    145e:	89 8f 00 18 00 00    	mov    %ecx,0x1800(%rdi)
    1464:	48 89 34 c7          	mov    %rsi,(%rdi,%rax,8)
    1468:	89 94 87 00 10 00 00 	mov    %edx,0x1000(%rdi,%rax,4)
    146f:	c3                   	ret    

0000000000001470 <_ZN3nb120nb__new_accept_queueEv>:
    1470:	f3 0f 1e fa          	endbr64 
    1474:	48 83 ec 08          	sub    $0x8,%rsp
    1478:	bf 08 24 00 00       	mov    $0x2408,%edi
    147d:	e8 ee fd ff ff       	call   1270 <malloc@plt>
    1482:	c7 80 00 24 00 00 00 	movl   $0x0,0x2400(%rax)
    1489:	00 00 00 
    148c:	48 83 c4 08          	add    $0x8,%rsp
    1490:	c3                   	ret    
    1491:	66 66 2e 0f 1f 84 00 	data16 cs nopw 0x0(%rax,%rax,1)
    1498:	00 00 00 00 
    149c:	0f 1f 40 00          	nopl   0x0(%rax)

00000000000014a0 <_ZN3nb121nb__free_accept_queueEP14accept_queue_t>:
    14a0:	f3 0f 1e fa          	endbr64 
    14a4:	e9 b7 fd ff ff       	jmp    1260 <free@plt>
    14a9:	0f 1f 80 00 00 00 00 	nopl   0x0(%rax)

00000000000014b0 <_ZN3nb123nb__insert_accept_queueEP14accept_queue_tjPcPv>:
    14b0:	f3 0f 1e fa          	endbr64 
    14b4:	48 63 87 00 24 00 00 	movslq 0x2400(%rdi),%rax
    14bb:	49 89 c8             	mov    %rcx,%r8
    14be:	8d 48 01             	lea    0x1(%rax),%ecx
    14c1:	89 8f 00 24 00 00    	mov    %ecx,0x2400(%rdi)
    14c7:	48 8d 0c 40          	lea    (%rax,%rax,2),%rcx
    14cb:	89 34 87             	mov    %esi,(%rdi,%rax,4)
    14ce:	8b 32                	mov    (%rdx),%esi
    14d0:	48 8d 8c 4f 00 08 00 	lea    0x800(%rdi,%rcx,2),%rcx
    14d7:	00 
    14d8:	89 31                	mov    %esi,(%rcx)
    14da:	0f b7 52 04          	movzwl 0x4(%rdx),%edx
    14de:	66 89 51 04          	mov    %dx,0x4(%rcx)
    14e2:	4c 89 84 c7 00 14 00 	mov    %r8,0x1400(%rdi,%rax,8)
    14e9:	00 
    14ea:	c3                   	ret    
    14eb:	0f 1f 44 00 00       	nopl   0x0(%rax,%rax,1)

00000000000014f0 <_ZN3nb18nb__readEPNS_16dynamic_struct_0EPci>:
    14f0:	f3 0f 1e fa          	endbr64 
    14f4:	41 57                	push   %r15
    14f6:	41 56                	push   %r14
    14f8:	41 55                	push   %r13
    14fa:	41 54                	push   %r12
    14fc:	55                   	push   %rbp
    14fd:	53                   	push   %rbx
    14fe:	48 83 ec 18          	sub    $0x18,%rsp
    1502:	48 8b 9f 10 01 00 00 	mov    0x110(%rdi),%rbx
    1509:	44 8b a3 00 18 00 00 	mov    0x1800(%rbx),%r12d
    1510:	45 85 e4             	test   %r12d,%r12d
    1513:	74 75                	je     158a <_ZN3nb18nb__readEPNS_16dynamic_struct_0EPci+0x9a>
    1515:	4c 8b 03             	mov    (%rbx),%r8
    1518:	44 8b bb 00 10 00 00 	mov    0x1000(%rbx),%r15d
    151f:	49 89 f6             	mov    %rsi,%r14
    1522:	89 d5                	mov    %edx,%ebp
    1524:	41 83 fc 01          	cmp    $0x1,%r12d
    1528:	7e 76                	jle    15a0 <_ZN3nb18nb__readEPNS_16dynamic_struct_0EPci+0xb0>
    152a:	45 8d 6c 24 ff       	lea    -0x1(%r12),%r13d
    152f:	48 8d 73 08          	lea    0x8(%rbx),%rsi
    1533:	48 89 df             	mov    %rbx,%rdi
    1536:	4c 89 44 24 08       	mov    %r8,0x8(%rsp)
    153b:	4a 8d 14 ed 00 00 00 	lea    0x0(,%r13,8),%rdx
    1542:	00 
    1543:	4d 89 ec             	mov    %r13,%r12
    1546:	e8 85 fd ff ff       	call   12d0 <memmove@plt>
    154b:	4a 8d 14 ad 00 00 00 	lea    0x0(,%r13,4),%rdx
    1552:	00 
    1553:	48 8d b3 04 10 00 00 	lea    0x1004(%rbx),%rsi
    155a:	48 8d bb 00 10 00 00 	lea    0x1000(%rbx),%rdi
    1561:	e8 6a fd ff ff       	call   12d0 <memmove@plt>
    1566:	4c 8b 44 24 08       	mov    0x8(%rsp),%r8
    156b:	41 39 ef             	cmp    %ebp,%r15d
    156e:	44 89 a3 00 18 00 00 	mov    %r12d,0x1800(%rbx)
    1575:	4c 89 c6             	mov    %r8,%rsi
    1578:	4c 89 f7             	mov    %r14,%rdi
    157b:	41 0f 4e ef          	cmovle %r15d,%ebp
    157f:	48 63 d5             	movslq %ebp,%rdx
    1582:	49 89 d4             	mov    %rdx,%r12
    1585:	e8 76 fc ff ff       	call   1200 <memcpy@plt>
    158a:	48 83 c4 18          	add    $0x18,%rsp
    158e:	44 89 e0             	mov    %r12d,%eax
    1591:	5b                   	pop    %rbx
    1592:	5d                   	pop    %rbp
    1593:	41 5c                	pop    %r12
    1595:	41 5d                	pop    %r13
    1597:	41 5e                	pop    %r14
    1599:	41 5f                	pop    %r15
    159b:	c3                   	ret    
    159c:	0f 1f 40 00          	nopl   0x0(%rax)
    15a0:	41 83 ec 01          	sub    $0x1,%r12d
    15a4:	eb c5                	jmp    156b <_ZN3nb18nb__readEPNS_16dynamic_struct_0EPci+0x7b>
    15a6:	66 2e 0f 1f 84 00 00 	cs nopw 0x0(%rax,%rax,1)
    15ad:	00 00 00 

00000000000015b0 <_ZN3nb110nb__acceptEPNS_16dynamic_struct_0EPFviS1_E>:
    15b0:	f3 0f 1e fa          	endbr64 
    15b4:	41 57                	push   %r15
    15b6:	45 31 ff             	xor    %r15d,%r15d
    15b9:	41 56                	push   %r14
    15bb:	41 55                	push   %r13
    15bd:	41 54                	push   %r12
    15bf:	55                   	push   %rbp
    15c0:	53                   	push   %rbx
    15c1:	48 83 ec 18          	sub    $0x18,%rsp
    15c5:	48 8b 17             	mov    (%rdi),%rdx
    15c8:	8b 82 00 24 00 00    	mov    0x2400(%rdx),%eax
    15ce:	85 c0                	test   %eax,%eax
    15d0:	0f 84 1f 01 00 00    	je     16f5 <_ZN3nb110nb__acceptEPNS_16dynamic_struct_0EPFviS1_E+0x145>
    15d6:	83 e8 01             	sub    $0x1,%eax
    15d9:	48 89 f1             	mov    %rsi,%rcx
    15dc:	49 89 fc             	mov    %rdi,%r12
    15df:	89 82 00 24 00 00    	mov    %eax,0x2400(%rdx)
    15e5:	48 98                	cltq   
    15e7:	44 8b 2c 82          	mov    (%rdx,%rax,4),%r13d
    15eb:	48 8d 34 40          	lea    (%rax,%rax,2),%rsi
    15ef:	48 8b ac c2 00 14 00 	mov    0x1400(%rdx,%rax,8),%rbp
    15f6:	00 
    15f7:	4c 8d b4 72 00 08 00 	lea    0x800(%rdx,%rsi,2),%r14
    15fe:	00 
    15ff:	8b 97 20 01 00 00    	mov    0x120(%rdi),%edx
    1605:	44 89 ee             	mov    %r13d,%esi
    1608:	4c 89 f7             	mov    %r14,%rdi
    160b:	e8 00 08 00 00       	call   1e10 <_ZN3nb113nb__establishEPcjjPFviPNS_16dynamic_struct_0EE>
    1610:	49 89 c7             	mov    %rax,%r15
    1613:	48 85 ed             	test   %rbp,%rbp
    1616:	74 0a                	je     1622 <_ZN3nb110nb__acceptEPNS_16dynamic_struct_0EPFviS1_E+0x72>
    1618:	31 f6                	xor    %esi,%esi
    161a:	48 89 ef             	mov    %rbp,%rdi
    161d:	e8 be 0b 00 00       	call   21e0 <_ZN3nb120nb__run_ingress_stepEPvi>
    1622:	49 8b 14 24          	mov    (%r12),%rdx
    1626:	8b 82 00 24 00 00    	mov    0x2400(%rdx),%eax
    162c:	85 c0                	test   %eax,%eax
    162e:	0f 8e c1 00 00 00    	jle    16f5 <_ZN3nb110nb__acceptEPNS_16dynamic_struct_0EPFviS1_E+0x145>
    1634:	31 db                	xor    %ebx,%ebx
    1636:	eb 13                	jmp    164b <_ZN3nb110nb__acceptEPNS_16dynamic_struct_0EPFviS1_E+0x9b>
    1638:	0f 1f 84 00 00 00 00 	nopl   0x0(%rax,%rax,1)
    163f:	00 
    1640:	83 c3 01             	add    $0x1,%ebx
    1643:	39 d8                	cmp    %ebx,%eax
    1645:	0f 8e aa 00 00 00    	jle    16f5 <_ZN3nb110nb__acceptEPNS_16dynamic_struct_0EPFviS1_E+0x145>
    164b:	48 63 eb             	movslq %ebx,%rbp
    164e:	44 39 2c aa          	cmp    %r13d,(%rdx,%rbp,4)
    1652:	75 ec                	jne    1640 <_ZN3nb110nb__acceptEPNS_16dynamic_struct_0EPFviS1_E+0x90>
    1654:	48 8d 4c 6d 00       	lea    0x0(%rbp,%rbp,2),%rcx
    1659:	41 8b 3e             	mov    (%r14),%edi
    165c:	4c 8d 84 09 00 08 00 	lea    0x800(%rcx,%rcx,1),%r8
    1663:	00 
    1664:	4a 8d 0c 02          	lea    (%rdx,%r8,1),%rcx
    1668:	39 39                	cmp    %edi,(%rcx)
    166a:	75 d4                	jne    1640 <_ZN3nb110nb__acceptEPNS_16dynamic_struct_0EPFviS1_E+0x90>
    166c:	41 0f b7 7e 04       	movzwl 0x4(%r14),%edi
    1671:	66 39 79 04          	cmp    %di,0x4(%rcx)
    1675:	75 c9                	jne    1640 <_ZN3nb110nb__acceptEPNS_16dynamic_struct_0EPFviS1_E+0x90>
    1677:	48 8b bc ea 00 14 00 	mov    0x1400(%rdx,%rbp,8),%rdi
    167e:	00 
    167f:	48 85 ff             	test   %rdi,%rdi
    1682:	74 1f                	je     16a3 <_ZN3nb110nb__acceptEPNS_16dynamic_struct_0EPFviS1_E+0xf3>
    1684:	31 f6                	xor    %esi,%esi
    1686:	4c 89 44 24 08       	mov    %r8,0x8(%rsp)
    168b:	e8 50 0b 00 00       	call   21e0 <_ZN3nb120nb__run_ingress_stepEPvi>
    1690:	49 8b 14 24          	mov    (%r12),%rdx
    1694:	4c 8b 44 24 08       	mov    0x8(%rsp),%r8
    1699:	8b 82 00 24 00 00    	mov    0x2400(%rdx),%eax
    169f:	4a 8d 0c 02          	lea    (%rdx,%r8,1),%rcx
    16a3:	83 e8 01             	sub    $0x1,%eax
    16a6:	48 98                	cltq   
    16a8:	8b 34 82             	mov    (%rdx,%rax,4),%esi
    16ab:	89 34 aa             	mov    %esi,(%rdx,%rbp,4)
    16ae:	48 8d 34 40          	lea    (%rax,%rax,2),%rsi
    16b2:	48 8d 94 72 00 08 00 	lea    0x800(%rdx,%rsi,2),%rdx
    16b9:	00 
    16ba:	8b 32                	mov    (%rdx),%esi
    16bc:	89 31                	mov    %esi,(%rcx)
    16be:	0f b7 52 04          	movzwl 0x4(%rdx),%edx
    16c2:	66 89 51 04          	mov    %dx,0x4(%rcx)
    16c6:	49 8b 14 24          	mov    (%r12),%rdx
    16ca:	48 8b 84 c2 00 14 00 	mov    0x1400(%rdx,%rax,8),%rax
    16d1:	00 
    16d2:	48 89 84 ea 00 14 00 	mov    %rax,0x1400(%rdx,%rbp,8)
    16d9:	00 
    16da:	49 8b 14 24          	mov    (%r12),%rdx
    16de:	8b 82 00 24 00 00    	mov    0x2400(%rdx),%eax
    16e4:	83 e8 01             	sub    $0x1,%eax
    16e7:	89 82 00 24 00 00    	mov    %eax,0x2400(%rdx)
    16ed:	39 d8                	cmp    %ebx,%eax
    16ef:	0f 8f 56 ff ff ff    	jg     164b <_ZN3nb110nb__acceptEPNS_16dynamic_struct_0EPFviS1_E+0x9b>
    16f5:	48 83 c4 18          	add    $0x18,%rsp
    16f9:	4c 89 f8             	mov    %r15,%rax
    16fc:	5b                   	pop    %rbx
    16fd:	5d                   	pop    %rbp
    16fe:	41 5c                	pop    %r12
    1700:	41 5d                	pop    %r13
    1702:	41 5e                	pop    %r14
    1704:	41 5f                	pop    %r15
    1706:	c3                   	ret    
    1707:	66 0f 1f 84 00 00 00 	nopw   0x0(%rax,%rax,1)
    170e:	00 00 

0000000000001710 <_ZN3nb116nb__debug_packetEPc>:
    1710:	f3 0f 1e fa          	endbr64 
    1714:	41 54                	push   %r12
    1716:	4c 8d 67 40          	lea    0x40(%rdi),%r12
    171a:	55                   	push   %rbp
    171b:	48 8d 2d e2 48 00 00 	lea    0x48e2(%rip),%rbp        # 6004 <_IO_stdin_used+0x4>
    1722:	53                   	push   %rbx
    1723:	48 89 fb             	mov    %rdi,%rbx
    1726:	66 2e 0f 1f 84 00 00 	cs nopw 0x0(%rax,%rax,1)
    172d:	00 00 00 
    1730:	0f b6 13             	movzbl (%rbx),%edx
    1733:	48 89 ee             	mov    %rbp,%rsi
    1736:	bf 01 00 00 00       	mov    $0x1,%edi
    173b:	31 c0                	xor    %eax,%eax
    173d:	48 83 c3 01          	add    $0x1,%rbx
    1741:	e8 5a fa ff ff       	call   11a0 <__printf_chk@plt>
    1746:	49 39 dc             	cmp    %rbx,%r12
    1749:	75 e5                	jne    1730 <_ZN3nb116nb__debug_packetEPc+0x20>
    174b:	5b                   	pop    %rbx
    174c:	bf 0a 00 00 00       	mov    $0xa,%edi
    1751:	5d                   	pop    %rbp
    1752:	41 5c                	pop    %r12
    1754:	e9 27 fb ff ff       	jmp    1280 <putchar@plt>
    1759:	0f 1f 80 00 00 00 00 	nopl   0x0(%rax)

0000000000001760 <_ZN3nb218nb__new_data_queueEv>:
    1760:	f3 0f 1e fa          	endbr64 
    1764:	48 83 ec 08          	sub    $0x8,%rsp
    1768:	bf 08 18 00 00       	mov    $0x1808,%edi
    176d:	e8 fe fa ff ff       	call   1270 <malloc@plt>
    1772:	c7 80 00 18 00 00 00 	movl   $0x0,0x1800(%rax)
    1779:	00 00 00 
    177c:	48 83 c4 08          	add    $0x8,%rsp
    1780:	c3                   	ret    
    1781:	66 66 2e 0f 1f 84 00 	data16 cs nopw 0x0(%rax,%rax,1)
    1788:	00 00 00 00 
    178c:	0f 1f 40 00          	nopl   0x0(%rax)

0000000000001790 <_ZN3nb219nb__free_data_queueEP12data_queue_t>:
    1790:	f3 0f 1e fa          	endbr64 
    1794:	e9 c7 fa ff ff       	jmp    1260 <free@plt>
    1799:	0f 1f 80 00 00 00 00 	nopl   0x0(%rax)

00000000000017a0 <_ZN3nb221nb__insert_data_queueEP12data_queue_tPci>:
    17a0:	f3 0f 1e fa          	endbr64 
    17a4:	48 63 87 00 18 00 00 	movslq 0x1800(%rdi),%rax
    17ab:	8d 48 01             	lea    0x1(%rax),%ecx
    17ae:	89 8f 00 18 00 00    	mov    %ecx,0x1800(%rdi)
    17b4:	48 89 34 c7          	mov    %rsi,(%rdi,%rax,8)
    17b8:	89 94 87 00 10 00 00 	mov    %edx,0x1000(%rdi,%rax,4)
    17bf:	c3                   	ret    

00000000000017c0 <_ZN3nb220nb__new_accept_queueEv>:
    17c0:	f3 0f 1e fa          	endbr64 
    17c4:	48 83 ec 08          	sub    $0x8,%rsp
    17c8:	bf 08 24 00 00       	mov    $0x2408,%edi
    17cd:	e8 9e fa ff ff       	call   1270 <malloc@plt>
    17d2:	c7 80 00 24 00 00 00 	movl   $0x0,0x2400(%rax)
    17d9:	00 00 00 
    17dc:	48 83 c4 08          	add    $0x8,%rsp
    17e0:	c3                   	ret    
    17e1:	66 66 2e 0f 1f 84 00 	data16 cs nopw 0x0(%rax,%rax,1)
    17e8:	00 00 00 00 
    17ec:	0f 1f 40 00          	nopl   0x0(%rax)

00000000000017f0 <_ZN3nb221nb__free_accept_queueEP14accept_queue_t>:
    17f0:	f3 0f 1e fa          	endbr64 
    17f4:	e9 67 fa ff ff       	jmp    1260 <free@plt>
    17f9:	0f 1f 80 00 00 00 00 	nopl   0x0(%rax)

0000000000001800 <_ZN3nb223nb__insert_accept_queueEP14accept_queue_tjPcPv>:
    1800:	f3 0f 1e fa          	endbr64 
    1804:	48 63 87 00 24 00 00 	movslq 0x2400(%rdi),%rax
    180b:	49 89 c8             	mov    %rcx,%r8
    180e:	8d 48 01             	lea    0x1(%rax),%ecx
    1811:	89 8f 00 24 00 00    	mov    %ecx,0x2400(%rdi)
    1817:	48 8d 0c 40          	lea    (%rax,%rax,2),%rcx
    181b:	89 34 87             	mov    %esi,(%rdi,%rax,4)
    181e:	8b 32                	mov    (%rdx),%esi
    1820:	48 8d 8c 4f 00 08 00 	lea    0x800(%rdi,%rcx,2),%rcx
    1827:	00 
    1828:	89 31                	mov    %esi,(%rcx)
    182a:	0f b7 52 04          	movzwl 0x4(%rdx),%edx
    182e:	66 89 51 04          	mov    %dx,0x4(%rcx)
    1832:	4c 89 84 c7 00 14 00 	mov    %r8,0x1400(%rdi,%rax,8)
    1839:	00 
    183a:	c3                   	ret    
    183b:	0f 1f 44 00 00       	nopl   0x0(%rax,%rax,1)

0000000000001840 <_ZN3nb28nb__readEPNS_16dynamic_struct_2EPci>:
    1840:	f3 0f 1e fa          	endbr64 
    1844:	41 57                	push   %r15
    1846:	41 56                	push   %r14
    1848:	41 55                	push   %r13
    184a:	41 54                	push   %r12
    184c:	55                   	push   %rbp
    184d:	53                   	push   %rbx
    184e:	48 83 ec 18          	sub    $0x18,%rsp
    1852:	48 8b 9f 10 01 00 00 	mov    0x110(%rdi),%rbx
    1859:	44 8b a3 00 18 00 00 	mov    0x1800(%rbx),%r12d
    1860:	45 85 e4             	test   %r12d,%r12d
    1863:	74 75                	je     18da <_ZN3nb28nb__readEPNS_16dynamic_struct_2EPci+0x9a>
    1865:	4c 8b 03             	mov    (%rbx),%r8
    1868:	44 8b bb 00 10 00 00 	mov    0x1000(%rbx),%r15d
    186f:	49 89 f6             	mov    %rsi,%r14
    1872:	89 d5                	mov    %edx,%ebp
    1874:	41 83 fc 01          	cmp    $0x1,%r12d
    1878:	7e 76                	jle    18f0 <_ZN3nb28nb__readEPNS_16dynamic_struct_2EPci+0xb0>
    187a:	45 8d 6c 24 ff       	lea    -0x1(%r12),%r13d
    187f:	48 8d 73 08          	lea    0x8(%rbx),%rsi
    1883:	48 89 df             	mov    %rbx,%rdi
    1886:	4c 89 44 24 08       	mov    %r8,0x8(%rsp)
    188b:	4a 8d 14 ed 00 00 00 	lea    0x0(,%r13,8),%rdx
    1892:	00 
    1893:	4d 89 ec             	mov    %r13,%r12
    1896:	e8 35 fa ff ff       	call   12d0 <memmove@plt>
    189b:	4a 8d 14 ad 00 00 00 	lea    0x0(,%r13,4),%rdx
    18a2:	00 
    18a3:	48 8d b3 04 10 00 00 	lea    0x1004(%rbx),%rsi
    18aa:	48 8d bb 00 10 00 00 	lea    0x1000(%rbx),%rdi
    18b1:	e8 1a fa ff ff       	call   12d0 <memmove@plt>
    18b6:	4c 8b 44 24 08       	mov    0x8(%rsp),%r8
    18bb:	44 39 fd             	cmp    %r15d,%ebp
    18be:	44 89 a3 00 18 00 00 	mov    %r12d,0x1800(%rbx)
    18c5:	4c 89 c6             	mov    %r8,%rsi
    18c8:	4c 89 f7             	mov    %r14,%rdi
    18cb:	44 0f 4e fd          	cmovle %ebp,%r15d
    18cf:	49 63 d7             	movslq %r15d,%rdx
    18d2:	49 89 d4             	mov    %rdx,%r12
    18d5:	e8 26 f9 ff ff       	call   1200 <memcpy@plt>
    18da:	48 83 c4 18          	add    $0x18,%rsp
    18de:	44 89 e0             	mov    %r12d,%eax
    18e1:	5b                   	pop    %rbx
    18e2:	5d                   	pop    %rbp
    18e3:	41 5c                	pop    %r12
    18e5:	41 5d                	pop    %r13
    18e7:	41 5e                	pop    %r14
    18e9:	41 5f                	pop    %r15
    18eb:	c3                   	ret    
    18ec:	0f 1f 40 00          	nopl   0x0(%rax)
    18f0:	41 83 ec 01          	sub    $0x1,%r12d
    18f4:	eb c5                	jmp    18bb <_ZN3nb28nb__readEPNS_16dynamic_struct_2EPci+0x7b>
    18f6:	66 2e 0f 1f 84 00 00 	cs nopw 0x0(%rax,%rax,1)
    18fd:	00 00 00 

0000000000001900 <_ZN3nb210nb__acceptEPNS_16dynamic_struct_2EPFviS1_E>:
    1900:	f3 0f 1e fa          	endbr64 
    1904:	41 57                	push   %r15
    1906:	45 31 ff             	xor    %r15d,%r15d
    1909:	41 56                	push   %r14
    190b:	41 55                	push   %r13
    190d:	41 54                	push   %r12
    190f:	55                   	push   %rbp
    1910:	53                   	push   %rbx
    1911:	48 83 ec 18          	sub    $0x18,%rsp
    1915:	48 8b 17             	mov    (%rdi),%rdx
    1918:	8b 82 00 24 00 00    	mov    0x2400(%rdx),%eax
    191e:	85 c0                	test   %eax,%eax
    1920:	0f 84 1f 01 00 00    	je     1a45 <_ZN3nb210nb__acceptEPNS_16dynamic_struct_2EPFviS1_E+0x145>
    1926:	83 e8 01             	sub    $0x1,%eax
    1929:	48 89 f1             	mov    %rsi,%rcx
    192c:	49 89 fc             	mov    %rdi,%r12
    192f:	89 82 00 24 00 00    	mov    %eax,0x2400(%rdx)
    1935:	48 98                	cltq   
    1937:	44 8b 2c 82          	mov    (%rdx,%rax,4),%r13d
    193b:	48 8d 34 40          	lea    (%rax,%rax,2),%rsi
    193f:	48 8b ac c2 00 14 00 	mov    0x1400(%rdx,%rax,8),%rbp
    1946:	00 
    1947:	4c 8d b4 72 00 08 00 	lea    0x800(%rdx,%rsi,2),%r14
    194e:	00 
    194f:	8b 97 20 01 00 00    	mov    0x120(%rdi),%edx
    1955:	44 89 ee             	mov    %r13d,%esi
    1958:	4c 89 f7             	mov    %r14,%rdi
    195b:	e8 b0 0b 00 00       	call   2510 <_ZN3nb213nb__establishEPcjjPFviPNS_16dynamic_struct_2EE>
    1960:	49 89 c7             	mov    %rax,%r15
    1963:	48 85 ed             	test   %rbp,%rbp
    1966:	74 0a                	je     1972 <_ZN3nb210nb__acceptEPNS_16dynamic_struct_2EPFviS1_E+0x72>
    1968:	31 f6                	xor    %esi,%esi
    196a:	48 89 ef             	mov    %rbp,%rdi
    196d:	e8 6e 0f 00 00       	call   28e0 <_ZN3nb220nb__run_ingress_stepEPvi>
    1972:	49 8b 14 24          	mov    (%r12),%rdx
    1976:	8b 82 00 24 00 00    	mov    0x2400(%rdx),%eax
    197c:	85 c0                	test   %eax,%eax
    197e:	0f 8e c1 00 00 00    	jle    1a45 <_ZN3nb210nb__acceptEPNS_16dynamic_struct_2EPFviS1_E+0x145>
    1984:	31 db                	xor    %ebx,%ebx
    1986:	eb 13                	jmp    199b <_ZN3nb210nb__acceptEPNS_16dynamic_struct_2EPFviS1_E+0x9b>
    1988:	0f 1f 84 00 00 00 00 	nopl   0x0(%rax,%rax,1)
    198f:	00 
    1990:	83 c3 01             	add    $0x1,%ebx
    1993:	39 d8                	cmp    %ebx,%eax
    1995:	0f 8e aa 00 00 00    	jle    1a45 <_ZN3nb210nb__acceptEPNS_16dynamic_struct_2EPFviS1_E+0x145>
    199b:	48 63 eb             	movslq %ebx,%rbp
    199e:	44 39 2c aa          	cmp    %r13d,(%rdx,%rbp,4)
    19a2:	75 ec                	jne    1990 <_ZN3nb210nb__acceptEPNS_16dynamic_struct_2EPFviS1_E+0x90>
    19a4:	48 8d 4c 6d 00       	lea    0x0(%rbp,%rbp,2),%rcx
    19a9:	41 8b 3e             	mov    (%r14),%edi
    19ac:	4c 8d 84 09 00 08 00 	lea    0x800(%rcx,%rcx,1),%r8
    19b3:	00 
    19b4:	4a 8d 0c 02          	lea    (%rdx,%r8,1),%rcx
    19b8:	39 39                	cmp    %edi,(%rcx)
    19ba:	75 d4                	jne    1990 <_ZN3nb210nb__acceptEPNS_16dynamic_struct_2EPFviS1_E+0x90>
    19bc:	41 0f b7 7e 04       	movzwl 0x4(%r14),%edi
    19c1:	66 39 79 04          	cmp    %di,0x4(%rcx)
    19c5:	75 c9                	jne    1990 <_ZN3nb210nb__acceptEPNS_16dynamic_struct_2EPFviS1_E+0x90>
    19c7:	48 8b bc ea 00 14 00 	mov    0x1400(%rdx,%rbp,8),%rdi
    19ce:	00 
    19cf:	48 85 ff             	test   %rdi,%rdi
    19d2:	74 1f                	je     19f3 <_ZN3nb210nb__acceptEPNS_16dynamic_struct_2EPFviS1_E+0xf3>
    19d4:	31 f6                	xor    %esi,%esi
    19d6:	4c 89 44 24 08       	mov    %r8,0x8(%rsp)
    19db:	e8 00 0f 00 00       	call   28e0 <_ZN3nb220nb__run_ingress_stepEPvi>
    19e0:	49 8b 14 24          	mov    (%r12),%rdx
    19e4:	4c 8b 44 24 08       	mov    0x8(%rsp),%r8
    19e9:	8b 82 00 24 00 00    	mov    0x2400(%rdx),%eax
    19ef:	4a 8d 0c 02          	lea    (%rdx,%r8,1),%rcx
    19f3:	83 e8 01             	sub    $0x1,%eax
    19f6:	48 98                	cltq   
    19f8:	8b 34 82             	mov    (%rdx,%rax,4),%esi
    19fb:	89 34 aa             	mov    %esi,(%rdx,%rbp,4)
    19fe:	48 8d 34 40          	lea    (%rax,%rax,2),%rsi
    1a02:	48 8d 94 72 00 08 00 	lea    0x800(%rdx,%rsi,2),%rdx
    1a09:	00 
    1a0a:	8b 32                	mov    (%rdx),%esi
    1a0c:	89 31                	mov    %esi,(%rcx)
    1a0e:	0f b7 52 04          	movzwl 0x4(%rdx),%edx
    1a12:	66 89 51 04          	mov    %dx,0x4(%rcx)
    1a16:	49 8b 14 24          	mov    (%r12),%rdx
    1a1a:	48 8b 84 c2 00 14 00 	mov    0x1400(%rdx,%rax,8),%rax
    1a21:	00 
    1a22:	48 89 84 ea 00 14 00 	mov    %rax,0x1400(%rdx,%rbp,8)
    1a29:	00 
    1a2a:	49 8b 14 24          	mov    (%r12),%rdx
    1a2e:	8b 82 00 24 00 00    	mov    0x2400(%rdx),%eax
    1a34:	83 e8 01             	sub    $0x1,%eax
    1a37:	89 82 00 24 00 00    	mov    %eax,0x2400(%rdx)
    1a3d:	39 d8                	cmp    %ebx,%eax
    1a3f:	0f 8f 56 ff ff ff    	jg     199b <_ZN3nb210nb__acceptEPNS_16dynamic_struct_2EPFviS1_E+0x9b>
    1a45:	48 83 c4 18          	add    $0x18,%rsp
    1a49:	4c 89 f8             	mov    %r15,%rax
    1a4c:	5b                   	pop    %rbx
    1a4d:	5d                   	pop    %rbp
    1a4e:	41 5c                	pop    %r12
    1a50:	41 5d                	pop    %r13
    1a52:	41 5e                	pop    %r14
    1a54:	41 5f                	pop    %r15
    1a56:	c3                   	ret    
    1a57:	66 0f 1f 84 00 00 00 	nopw   0x0(%rax,%rax,1)
    1a5e:	00 00 

0000000000001a60 <_ZN3nb216nb__debug_packetEPc>:
    1a60:	f3 0f 1e fa          	endbr64 
    1a64:	41 54                	push   %r12
    1a66:	4c 8d 67 40          	lea    0x40(%rdi),%r12
    1a6a:	55                   	push   %rbp
    1a6b:	48 8d 2d 92 45 00 00 	lea    0x4592(%rip),%rbp        # 6004 <_IO_stdin_used+0x4>
    1a72:	53                   	push   %rbx
    1a73:	48 89 fb             	mov    %rdi,%rbx
    1a76:	66 2e 0f 1f 84 00 00 	cs nopw 0x0(%rax,%rax,1)
    1a7d:	00 00 00 
    1a80:	0f b6 13             	movzbl (%rbx),%edx
    1a83:	48 89 ee             	mov    %rbp,%rsi
    1a86:	bf 01 00 00 00       	mov    $0x1,%edi
    1a8b:	31 c0                	xor    %eax,%eax
    1a8d:	48 83 c3 01          	add    $0x1,%rbx
    1a91:	e8 0a f7 ff ff       	call   11a0 <__printf_chk@plt>
    1a96:	49 39 dc             	cmp    %rbx,%r12
    1a99:	75 e5                	jne    1a80 <_ZN3nb216nb__debug_packetEPc+0x20>
    1a9b:	5b                   	pop    %rbx
    1a9c:	bf 0a 00 00 00       	mov    $0xa,%edi
    1aa1:	5d                   	pop    %rbp
    1aa2:	41 5c                	pop    %r12
    1aa4:	e9 d7 f7 ff ff       	jmp    1280 <putchar@plt>
    1aa9:	0f 1f 80 00 00 00 00 	nopl   0x0(%rax)

0000000000001ab0 <_Z19nb__get_time_ms_nowv>:
    1ab0:	f3 0f 1e fa          	endbr64 
    1ab4:	53                   	push   %rbx
    1ab5:	48 83 ec 20          	sub    $0x20,%rsp
    1ab9:	48 8d 1d 50 75 00 00 	lea    0x7550(%rip),%rbx        # 9010 <nb__time_now>
    1ac0:	64 48 8b 04 25 28 00 	mov    %fs:0x28,%rax
    1ac7:	00 00 
    1ac9:	48 89 44 24 18       	mov    %rax,0x18(%rsp)
    1ace:	31 c0                	xor    %eax,%eax
    1ad0:	48 8b 03             	mov    (%rbx),%rax
    1ad3:	48 83 f8 ff          	cmp    $0xffffffffffffffff,%rax
    1ad7:	74 17                	je     1af0 <_Z19nb__get_time_ms_nowv+0x40>
    1ad9:	48 8b 54 24 18       	mov    0x18(%rsp),%rdx
    1ade:	64 48 2b 14 25 28 00 	sub    %fs:0x28,%rdx
    1ae5:	00 00 
    1ae7:	75 45                	jne    1b2e <_Z19nb__get_time_ms_nowv+0x7e>
    1ae9:	48 83 c4 20          	add    $0x20,%rsp
    1aed:	5b                   	pop    %rbx
    1aee:	c3                   	ret    
    1aef:	90                   	nop
    1af0:	48 89 e6             	mov    %rsp,%rsi
    1af3:	bf 01 00 00 00       	mov    $0x1,%edi
    1af8:	e8 23 f7 ff ff       	call   1220 <clock_gettime@plt>
    1afd:	48 8b 74 24 08       	mov    0x8(%rsp),%rsi
    1b02:	48 ba db 34 b6 d7 82 	movabs $0x431bde82d7b634db,%rdx
    1b09:	de 1b 43 
    1b0c:	48 69 0c 24 e8 03 00 	imul   $0x3e8,(%rsp),%rcx
    1b13:	00 
    1b14:	48 89 f0             	mov    %rsi,%rax
    1b17:	48 c1 fe 3f          	sar    $0x3f,%rsi
    1b1b:	48 f7 ea             	imul   %rdx
    1b1e:	48 c1 fa 12          	sar    $0x12,%rdx
    1b22:	48 29 f2             	sub    %rsi,%rdx
    1b25:	48 8d 04 11          	lea    (%rcx,%rdx,1),%rax
    1b29:	48 89 03             	mov    %rax,(%rbx)
    1b2c:	eb ab                	jmp    1ad9 <_Z19nb__get_time_ms_nowv+0x29>
    1b2e:	e8 1d f7 ff ff       	call   1250 <__stack_chk_fail@plt>
    1b33:	66 66 2e 0f 1f 84 00 	data16 cs nopw 0x0(%rax,%rax,1)
    1b3a:	00 00 00 00 
    1b3e:	66 90                	xchg   %ax,%ax

0000000000001b40 <_ZN3nb118nb__main_loop_stepEv>:
    1b40:	f3 0f 1e fa          	endbr64 
    1b44:	41 54                	push   %r12
    1b46:	bf 01 00 00 00       	mov    $0x1,%edi
    1b4b:	55                   	push   %rbp
    1b4c:	53                   	push   %rbx
    1b4d:	48 83 ec 30          	sub    $0x30,%rsp
    1b51:	64 48 8b 04 25 28 00 	mov    %fs:0x28,%rax
    1b58:	00 00 
    1b5a:	48 89 44 24 28       	mov    %rax,0x28(%rsp)
    1b5f:	31 c0                	xor    %eax,%eax
    1b61:	48 8d 74 24 10       	lea    0x10(%rsp),%rsi
    1b66:	e8 b5 f6 ff ff       	call   1220 <clock_gettime@plt>
    1b6b:	48 8b 4c 24 18       	mov    0x18(%rsp),%rcx
    1b70:	48 ba db 34 b6 d7 82 	movabs $0x431bde82d7b634db,%rdx
    1b77:	de 1b 43 
    1b7a:	48 69 74 24 10 e8 03 	imul   $0x3e8,0x10(%rsp),%rsi
    1b81:	00 00 
    1b83:	48 8d 7c 24 0c       	lea    0xc(%rsp),%rdi
    1b88:	c7 44 24 0c 00 00 00 	movl   $0x0,0xc(%rsp)
    1b8f:	00 
    1b90:	48 89 c8             	mov    %rcx,%rax
    1b93:	48 c1 f9 3f          	sar    $0x3f,%rcx
    1b97:	48 f7 ea             	imul   %rdx
    1b9a:	48 8d 05 6f 74 00 00 	lea    0x746f(%rip),%rax        # 9010 <nb__time_now>
    1ba1:	48 c1 fa 12          	sar    $0x12,%rdx
    1ba5:	48 29 ca             	sub    %rcx,%rdx
    1ba8:	48 01 d6             	add    %rdx,%rsi
    1bab:	48 89 30             	mov    %rsi,(%rax)
    1bae:	be 14 00 00 00       	mov    $0x14,%esi
    1bb3:	e8 51 19 00 00       	call   3509 <_ZN3nb115nb__poll_packetEPii>
    1bb8:	8b 74 24 0c          	mov    0xc(%rsp),%esi
    1bbc:	48 89 c5             	mov    %rax,%rbp
    1bbf:	85 f6                	test   %esi,%esi
    1bc1:	0f 8e d1 00 00 00    	jle    1c98 <_ZN3nb118nb__main_loop_stepEv+0x158>
    1bc7:	31 db                	xor    %ebx,%ebx
    1bc9:	4c 8d 25 34 44 00 00 	lea    0x4434(%rip),%r12        # 6004 <_IO_stdin_used+0x4>
    1bd0:	0f b6 54 1d 00       	movzbl 0x0(%rbp,%rbx,1),%edx
    1bd5:	4c 89 e6             	mov    %r12,%rsi
    1bd8:	bf 01 00 00 00       	mov    $0x1,%edi
    1bdd:	31 c0                	xor    %eax,%eax
    1bdf:	48 83 c3 01          	add    $0x1,%rbx
    1be3:	e8 b8 f5 ff ff       	call   11a0 <__printf_chk@plt>
    1be8:	8b 74 24 0c          	mov    0xc(%rsp),%esi
    1bec:	39 de                	cmp    %ebx,%esi
    1bee:	7f e0                	jg     1bd0 <_ZN3nb118nb__main_loop_stepEv+0x90>
    1bf0:	48 89 ef             	mov    %rbp,%rdi
    1bf3:	e8 e8 05 00 00       	call   21e0 <_ZN3nb120nb__run_ingress_stepEPvi>
    1bf8:	e8 b3 fe ff ff       	call   1ab0 <_Z19nb__get_time_ms_nowv>
    1bfd:	4c 8d 25 64 74 00 00 	lea    0x7464(%rip),%r12        # 9068 <_ZN3nb113nb__net_stateE>
    1c04:	49 8b 04 24          	mov    (%r12),%rax
    1c08:	8b 88 00 2c 00 00    	mov    0x2c00(%rax),%ecx
    1c0e:	85 c9                	test   %ecx,%ecx
    1c10:	7e 50                	jle    1c62 <_ZN3nb118nb__main_loop_stepEv+0x122>
    1c12:	31 ed                	xor    %ebp,%ebp
    1c14:	0f 1f 40 00          	nopl   0x0(%rax)
    1c18:	48 63 d5             	movslq %ebp,%rdx
    1c1b:	48 8b 1c d0          	mov    (%rax,%rdx,8),%rbx
    1c1f:	48 8b 03             	mov    (%rbx),%rax
    1c22:	8b 90 00 24 00 00    	mov    0x2400(%rax),%edx
    1c28:	85 d2                	test   %edx,%edx
    1c2a:	74 0b                	je     1c37 <_ZN3nb118nb__main_loop_stepEv+0xf7>
    1c2c:	48 89 de             	mov    %rbx,%rsi
    1c2f:	bf 02 00 00 00       	mov    $0x2,%edi
    1c34:	ff 53 08             	call   *0x8(%rbx)
    1c37:	48 8b 83 10 01 00 00 	mov    0x110(%rbx),%rax
    1c3e:	8b 80 00 18 00 00    	mov    0x1800(%rax),%eax
    1c44:	85 c0                	test   %eax,%eax
    1c46:	74 38                	je     1c80 <_ZN3nb118nb__main_loop_stepEv+0x140>
    1c48:	48 89 de             	mov    %rbx,%rsi
    1c4b:	bf 01 00 00 00       	mov    $0x1,%edi
    1c50:	83 c5 01             	add    $0x1,%ebp
    1c53:	ff 53 08             	call   *0x8(%rbx)
    1c56:	49 8b 04 24          	mov    (%r12),%rax
    1c5a:	3b a8 00 2c 00 00    	cmp    0x2c00(%rax),%ebp
    1c60:	7c b6                	jl     1c18 <_ZN3nb118nb__main_loop_stepEv+0xd8>
    1c62:	e8 09 12 00 00       	call   2e70 <_ZN3nb116nb__check_timersEv>
    1c67:	48 8b 44 24 28       	mov    0x28(%rsp),%rax
    1c6c:	64 48 2b 04 25 28 00 	sub    %fs:0x28,%rax
    1c73:	00 00 
    1c75:	75 2f                	jne    1ca6 <_ZN3nb118nb__main_loop_stepEv+0x166>
    1c77:	48 83 c4 30          	add    $0x30,%rsp
    1c7b:	5b                   	pop    %rbx
    1c7c:	5d                   	pop    %rbp
    1c7d:	41 5c                	pop    %r12
    1c7f:	c3                   	ret    
    1c80:	49 8b 04 24          	mov    (%r12),%rax
    1c84:	83 c5 01             	add    $0x1,%ebp
    1c87:	3b a8 00 2c 00 00    	cmp    0x2c00(%rax),%ebp
    1c8d:	7c 89                	jl     1c18 <_ZN3nb118nb__main_loop_stepEv+0xd8>
    1c8f:	eb d1                	jmp    1c62 <_ZN3nb118nb__main_loop_stepEv+0x122>
    1c91:	0f 1f 80 00 00 00 00 	nopl   0x0(%rax)
    1c98:	48 85 c0             	test   %rax,%rax
    1c9b:	0f 84 57 ff ff ff    	je     1bf8 <_ZN3nb118nb__main_loop_stepEv+0xb8>
    1ca1:	e9 4a ff ff ff       	jmp    1bf0 <_ZN3nb118nb__main_loop_stepEv+0xb0>
    1ca6:	e8 a5 f5 ff ff       	call   1250 <__stack_chk_fail@plt>
    1cab:	0f 1f 44 00 00       	nopl   0x0(%rax,%rax,1)

0000000000001cb0 <_ZN3nb218nb__main_loop_stepEv>:
    1cb0:	f3 0f 1e fa          	endbr64 
    1cb4:	41 54                	push   %r12
    1cb6:	bf 01 00 00 00       	mov    $0x1,%edi
    1cbb:	55                   	push   %rbp
    1cbc:	53                   	push   %rbx
    1cbd:	48 83 ec 30          	sub    $0x30,%rsp
    1cc1:	64 48 8b 04 25 28 00 	mov    %fs:0x28,%rax
    1cc8:	00 00 
    1cca:	48 89 44 24 28       	mov    %rax,0x28(%rsp)
    1ccf:	31 c0                	xor    %eax,%eax
    1cd1:	48 8d 74 24 10       	lea    0x10(%rsp),%rsi
    1cd6:	e8 45 f5 ff ff       	call   1220 <clock_gettime@plt>
    1cdb:	48 8b 4c 24 18       	mov    0x18(%rsp),%rcx
    1ce0:	48 ba db 34 b6 d7 82 	movabs $0x431bde82d7b634db,%rdx
    1ce7:	de 1b 43 
    1cea:	48 69 74 24 10 e8 03 	imul   $0x3e8,0x10(%rsp),%rsi
    1cf1:	00 00 
    1cf3:	48 8d 7c 24 0c       	lea    0xc(%rsp),%rdi
    1cf8:	c7 44 24 0c 00 00 00 	movl   $0x0,0xc(%rsp)
    1cff:	00 
    1d00:	48 89 c8             	mov    %rcx,%rax
    1d03:	48 c1 f9 3f          	sar    $0x3f,%rcx
    1d07:	48 f7 ea             	imul   %rdx
    1d0a:	48 8d 05 ff 72 00 00 	lea    0x72ff(%rip),%rax        # 9010 <nb__time_now>
    1d11:	48 c1 fa 12          	sar    $0x12,%rdx
    1d15:	48 29 ca             	sub    %rcx,%rdx
    1d18:	48 01 d6             	add    %rdx,%rsi
    1d1b:	48 89 30             	mov    %rsi,(%rax)
    1d1e:	be 14 00 00 00       	mov    $0x14,%esi
    1d23:	e8 7a 19 00 00       	call   36a2 <_ZN3nb215nb__poll_packetEPii>
    1d28:	48 85 c0             	test   %rax,%rax
    1d2b:	74 0c                	je     1d39 <_ZN3nb218nb__main_loop_stepEv+0x89>
    1d2d:	8b 74 24 0c          	mov    0xc(%rsp),%esi
    1d31:	48 89 c7             	mov    %rax,%rdi
    1d34:	e8 a7 0b 00 00       	call   28e0 <_ZN3nb220nb__run_ingress_stepEPvi>
    1d39:	e8 72 fd ff ff       	call   1ab0 <_Z19nb__get_time_ms_nowv>
    1d3e:	4c 8d 25 0b 73 00 00 	lea    0x730b(%rip),%r12        # 9050 <_ZN3nb213nb__net_stateE>
    1d45:	49 8b 04 24          	mov    (%r12),%rax
    1d49:	8b 88 00 2c 00 00    	mov    0x2c00(%rax),%ecx
    1d4f:	85 c9                	test   %ecx,%ecx
    1d51:	7e 4f                	jle    1da2 <_ZN3nb218nb__main_loop_stepEv+0xf2>
    1d53:	31 ed                	xor    %ebp,%ebp
    1d55:	0f 1f 00             	nopl   (%rax)
    1d58:	48 63 d5             	movslq %ebp,%rdx
    1d5b:	48 8b 1c d0          	mov    (%rax,%rdx,8),%rbx
    1d5f:	48 8b 03             	mov    (%rbx),%rax
    1d62:	8b 90 00 24 00 00    	mov    0x2400(%rax),%edx
    1d68:	85 d2                	test   %edx,%edx
    1d6a:	74 0b                	je     1d77 <_ZN3nb218nb__main_loop_stepEv+0xc7>
    1d6c:	48 89 de             	mov    %rbx,%rsi
    1d6f:	bf 02 00 00 00       	mov    $0x2,%edi
    1d74:	ff 53 08             	call   *0x8(%rbx)
    1d77:	48 8b 83 10 01 00 00 	mov    0x110(%rbx),%rax
    1d7e:	8b 80 00 18 00 00    	mov    0x1800(%rax),%eax
    1d84:	85 c0                	test   %eax,%eax
    1d86:	74 38                	je     1dc0 <_ZN3nb218nb__main_loop_stepEv+0x110>
    1d88:	48 89 de             	mov    %rbx,%rsi
    1d8b:	bf 01 00 00 00       	mov    $0x1,%edi
    1d90:	83 c5 01             	add    $0x1,%ebp
    1d93:	ff 53 08             	call   *0x8(%rbx)
    1d96:	49 8b 04 24          	mov    (%r12),%rax
    1d9a:	39 a8 00 2c 00 00    	cmp    %ebp,0x2c00(%rax)
    1da0:	7f b6                	jg     1d58 <_ZN3nb218nb__main_loop_stepEv+0xa8>
    1da2:	e8 29 14 00 00       	call   31d0 <_ZN3nb216nb__check_timersEv>
    1da7:	48 8b 44 24 28       	mov    0x28(%rsp),%rax
    1dac:	64 48 2b 04 25 28 00 	sub    %fs:0x28,%rax
    1db3:	00 00 
    1db5:	75 1a                	jne    1dd1 <_ZN3nb218nb__main_loop_stepEv+0x121>
    1db7:	48 83 c4 30          	add    $0x30,%rsp
    1dbb:	5b                   	pop    %rbx
    1dbc:	5d                   	pop    %rbp
    1dbd:	41 5c                	pop    %r12
    1dbf:	c3                   	ret    
    1dc0:	49 8b 04 24          	mov    (%r12),%rax
    1dc4:	83 c5 01             	add    $0x1,%ebp
    1dc7:	3b a8 00 2c 00 00    	cmp    0x2c00(%rax),%ebp
    1dcd:	7c 89                	jl     1d58 <_ZN3nb218nb__main_loop_stepEv+0xa8>
    1dcf:	eb d1                	jmp    1da2 <_ZN3nb218nb__main_loop_stepEv+0xf2>
    1dd1:	e8 7a f4 ff ff       	call   1250 <__stack_chk_fail@plt>
    1dd6:	66 2e 0f 1f 84 00 00 	cs nopw 0x0(%rax,%rax,1)
    1ddd:	00 00 00 

0000000000001de0 <_ZN3nb112nb__net_initEv>:
    1de0:	f3 0f 1e fa          	endbr64 
    1de4:	48 83 ec 08          	sub    $0x8,%rsp
    1de8:	e8 23 0f 00 00       	call   2d10 <_ZN3nb115nb__init_timersEv>
    1ded:	bf 08 00 00 00       	mov    $0x8,%edi
    1df2:	e8 79 f4 ff ff       	call   1270 <malloc@plt>
    1df7:	48 8d 15 6a 72 00 00 	lea    0x726a(%rip),%rdx        # 9068 <_ZN3nb113nb__net_stateE>
    1dfe:	c7 80 00 2c 00 00 00 	movl   $0x0,0x2c00(%rax)
    1e05:	00 00 00 
    1e08:	48 89 02             	mov    %rax,(%rdx)
    1e0b:	48 83 c4 08          	add    $0x8,%rsp
    1e0f:	c3                   	ret    

0000000000001e10 <_ZN3nb113nb__establishEPcjjPFviPNS_16dynamic_struct_0EE>:
    1e10:	f3 0f 1e fa          	endbr64 
    1e14:	41 56                	push   %r14
    1e16:	49 89 ce             	mov    %rcx,%r14
    1e19:	41 55                	push   %r13
    1e1b:	49 89 fd             	mov    %rdi,%r13
    1e1e:	bf 38 01 00 00       	mov    $0x138,%edi
    1e23:	41 54                	push   %r12
    1e25:	55                   	push   %rbp
    1e26:	89 d5                	mov    %edx,%ebp
    1e28:	53                   	push   %rbx
    1e29:	89 f3                	mov    %esi,%ebx
    1e2b:	e8 40 f4 ff ff       	call   1270 <malloc@plt>
    1e30:	49 89 c4             	mov    %rax,%r12
    1e33:	4c 89 70 08          	mov    %r14,0x8(%rax)
    1e37:	48 8b 05 ca 41 00 00 	mov    0x41ca(%rip),%rax        # 6008 <_IO_stdin_used+0x8>
    1e3e:	49 8d 7c 24 18       	lea    0x18(%r12),%rdi
    1e43:	4c 89 e6             	mov    %r12,%rsi
    1e46:	49 c7 44 24 10 00 00 	movq   $0x0,0x10(%r12)
    1e4d:	00 00 
    1e4f:	49 89 84 24 18 01 00 	mov    %rax,0x118(%r12)
    1e56:	00 
    1e57:	48 83 e7 f8          	and    $0xfffffffffffffff8,%rdi
    1e5b:	44 89 e0             	mov    %r12d,%eax
    1e5e:	49 c7 84 24 08 01 00 	movq   $0x0,0x108(%r12)
    1e65:	00 00 00 00 00 
    1e6a:	29 f8                	sub    %edi,%eax
    1e6c:	8d 88 10 01 00 00    	lea    0x110(%rax),%ecx
    1e72:	31 c0                	xor    %eax,%eax
    1e74:	c1 e9 03             	shr    $0x3,%ecx
    1e77:	f3 48 ab             	rep stos %rax,%es:(%rdi)
    1e7a:	31 ff                	xor    %edi,%edi
    1e7c:	41 c7 84 24 24 01 00 	movl   $0x0,0x124(%r12)
    1e83:	00 00 00 00 00 
    1e88:	41 ff d6             	call   *%r14
    1e8b:	41 8b 45 00          	mov    0x0(%r13),%eax
    1e8f:	41 89 9c 24 28 01 00 	mov    %ebx,0x128(%r12)
    1e96:	00 
    1e97:	41 89 ac 24 20 01 00 	mov    %ebp,0x120(%r12)
    1e9e:	00 
    1e9f:	41 89 84 24 2c 01 00 	mov    %eax,0x12c(%r12)
    1ea6:	00 
    1ea7:	41 0f b7 45 04       	movzwl 0x4(%r13),%eax
    1eac:	66 41 89 84 24 30 01 	mov    %ax,0x130(%r12)
    1eb3:	00 00 
    1eb5:	e8 56 f5 ff ff       	call   1410 <_ZN3nb118nb__new_data_queueEv>
    1eba:	49 89 84 24 10 01 00 	mov    %rax,0x110(%r12)
    1ec1:	00 
    1ec2:	e8 a9 f5 ff ff       	call   1470 <_ZN3nb120nb__new_accept_queueEv>
    1ec7:	49 89 04 24          	mov    %rax,(%r12)
    1ecb:	48 8d 05 96 71 00 00 	lea    0x7196(%rip),%rax        # 9068 <_ZN3nb113nb__net_stateE>
    1ed2:	48 8b 10             	mov    (%rax),%rdx
    1ed5:	48 63 82 00 2c 00 00 	movslq 0x2c00(%rdx),%rax
    1edc:	8d 48 01             	lea    0x1(%rax),%ecx
    1edf:	89 8a 00 2c 00 00    	mov    %ecx,0x2c00(%rdx)
    1ee5:	89 ac 82 00 10 00 00 	mov    %ebp,0x1000(%rdx,%rax,4)
    1eec:	4c 89 24 c2          	mov    %r12,(%rdx,%rax,8)
    1ef0:	89 9c 82 00 18 00 00 	mov    %ebx,0x1800(%rdx,%rax,4)
    1ef7:	48 8d 04 40          	lea    (%rax,%rax,2),%rax
    1efb:	48 8d 84 42 00 20 00 	lea    0x2000(%rdx,%rax,2),%rax
    1f02:	00 
    1f03:	41 8b 55 00          	mov    0x0(%r13),%edx
    1f07:	89 10                	mov    %edx,(%rax)
    1f09:	41 0f b7 55 04       	movzwl 0x4(%r13),%edx
    1f0e:	66 89 50 04          	mov    %dx,0x4(%rax)
    1f12:	4c 89 e0             	mov    %r12,%rax
    1f15:	5b                   	pop    %rbx
    1f16:	5d                   	pop    %rbp
    1f17:	41 5c                	pop    %r12
    1f19:	41 5d                	pop    %r13
    1f1b:	41 5e                	pop    %r14
    1f1d:	c3                   	ret    
    1f1e:	66 90                	xchg   %ax,%ax

0000000000001f20 <_ZN3nb114nb__destablishEPNS_16dynamic_struct_0E>:
    1f20:	f3 0f 1e fa          	endbr64 
    1f24:	55                   	push   %rbp
    1f25:	48 89 fd             	mov    %rdi,%rbp
    1f28:	53                   	push   %rbx
    1f29:	48 83 ec 08          	sub    $0x8,%rsp
    1f2d:	48 8d 05 34 71 00 00 	lea    0x7134(%rip),%rax        # 9068 <_ZN3nb113nb__net_stateE>
    1f34:	8b b7 20 01 00 00    	mov    0x120(%rdi),%esi
    1f3a:	44 8b 97 28 01 00 00 	mov    0x128(%rdi),%r10d
    1f41:	48 8b 08             	mov    (%rax),%rcx
    1f44:	44 8b 89 00 2c 00 00 	mov    0x2c00(%rcx),%r9d
    1f4b:	45 85 c9             	test   %r9d,%r9d
    1f4e:	0f 8e 9d 00 00 00    	jle    1ff1 <_ZN3nb114nb__destablishEPNS_16dynamic_struct_0E+0xd1>
    1f54:	4c 8d 9f 2c 01 00 00 	lea    0x12c(%rdi),%r11
    1f5b:	48 8d 91 00 20 00 00 	lea    0x2000(%rcx),%rdx
    1f62:	4d 63 c1             	movslq %r9d,%r8
    1f65:	31 c0                	xor    %eax,%eax
    1f67:	eb 14                	jmp    1f7d <_ZN3nb114nb__destablishEPNS_16dynamic_struct_0E+0x5d>
    1f69:	0f 1f 80 00 00 00 00 	nopl   0x0(%rax)
    1f70:	48 83 c0 01          	add    $0x1,%rax
    1f74:	48 83 c2 06          	add    $0x6,%rdx
    1f78:	4c 39 c0             	cmp    %r8,%rax
    1f7b:	74 74                	je     1ff1 <_ZN3nb114nb__destablishEPNS_16dynamic_struct_0E+0xd1>
    1f7d:	48 63 f8             	movslq %eax,%rdi
    1f80:	39 b4 81 00 10 00 00 	cmp    %esi,0x1000(%rcx,%rax,4)
    1f87:	75 e7                	jne    1f70 <_ZN3nb114nb__destablishEPNS_16dynamic_struct_0E+0x50>
    1f89:	44 39 94 81 00 18 00 	cmp    %r10d,0x1800(%rcx,%rax,4)
    1f90:	00 
    1f91:	75 dd                	jne    1f70 <_ZN3nb114nb__destablishEPNS_16dynamic_struct_0E+0x50>
    1f93:	41 8b 1b             	mov    (%r11),%ebx
    1f96:	39 1a                	cmp    %ebx,(%rdx)
    1f98:	75 d6                	jne    1f70 <_ZN3nb114nb__destablishEPNS_16dynamic_struct_0E+0x50>
    1f9a:	41 0f b7 5b 04       	movzwl 0x4(%r11),%ebx
    1f9f:	66 39 5a 04          	cmp    %bx,0x4(%rdx)
    1fa3:	75 cb                	jne    1f70 <_ZN3nb114nb__destablishEPNS_16dynamic_struct_0E+0x50>
    1fa5:	41 83 e9 01          	sub    $0x1,%r9d
    1fa9:	44 89 89 00 2c 00 00 	mov    %r9d,0x2c00(%rcx)
    1fb0:	4d 63 c9             	movslq %r9d,%r9
    1fb3:	42 8b 84 89 00 10 00 	mov    0x1000(%rcx,%r9,4),%eax
    1fba:	00 
    1fbb:	89 84 b9 00 10 00 00 	mov    %eax,0x1000(%rcx,%rdi,4)
    1fc2:	4a 8b 04 c9          	mov    (%rcx,%r9,8),%rax
    1fc6:	48 89 04 f9          	mov    %rax,(%rcx,%rdi,8)
    1fca:	42 8b 84 89 00 18 00 	mov    0x1800(%rcx,%r9,4),%eax
    1fd1:	00 
    1fd2:	89 84 b9 00 18 00 00 	mov    %eax,0x1800(%rcx,%rdi,4)
    1fd9:	4b 8d 04 49          	lea    (%r9,%r9,2),%rax
    1fdd:	48 8d 84 41 00 20 00 	lea    0x2000(%rcx,%rax,2),%rax
    1fe4:	00 
    1fe5:	8b 0a                	mov    (%rdx),%ecx
    1fe7:	89 08                	mov    %ecx,(%rax)
    1fe9:	0f b7 52 04          	movzwl 0x4(%rdx),%edx
    1fed:	66 89 50 04          	mov    %dx,0x4(%rax)
    1ff1:	48 8b bd 10 01 00 00 	mov    0x110(%rbp),%rdi
    1ff8:	e8 43 f4 ff ff       	call   1440 <_ZN3nb119nb__free_data_queueEP12data_queue_t>
    1ffd:	48 8b 7d 00          	mov    0x0(%rbp),%rdi
    2001:	e8 9a f4 ff ff       	call   14a0 <_ZN3nb121nb__free_accept_queueEP14accept_queue_t>
    2006:	48 83 c4 08          	add    $0x8,%rsp
    200a:	48 89 ef             	mov    %rbp,%rdi
    200d:	5b                   	pop    %rbx
    200e:	5d                   	pop    %rbp
    200f:	e9 4c f2 ff ff       	jmp    1260 <free@plt>
    2014:	66 66 2e 0f 1f 84 00 	data16 cs nopw 0x0(%rax,%rax,1)
    201b:	00 00 00 00 
    201f:	90                   	nop

0000000000002020 <_ZN3nb18nb__sendEPNS_16dynamic_struct_0EPci>:
    2020:	f3 0f 1e fa          	endbr64 
    2024:	41 55                	push   %r13
    2026:	49 89 f5             	mov    %rsi,%r13
    2029:	41 54                	push   %r12
    202b:	41 89 d4             	mov    %edx,%r12d
    202e:	55                   	push   %rbp
    202f:	48 89 fd             	mov    %rdi,%rbp
    2032:	53                   	push   %rbx
    2033:	48 83 ec 08          	sub    $0x8,%rsp
    2037:	e8 b4 f3 ff ff       	call   13f0 <_ZN3nb123nb__request_send_bufferEv>
    203c:	49 63 d4             	movslq %r12d,%rdx
    203f:	4c 89 ee             	mov    %r13,%rsi
    2042:	48 8d 78 2e          	lea    0x2e(%rax),%rdi
    2046:	48 89 c3             	mov    %rax,%rbx
    2049:	e8 b2 f1 ff ff       	call   1200 <memcpy@plt>
    204e:	41 8d 44 24 22       	lea    0x22(%r12),%eax
    2053:	48 8d 7b 0c          	lea    0xc(%rbx),%rdi
    2057:	89 43 1c             	mov    %eax,0x1c(%rbx)
    205a:	8b 85 1c 01 00 00    	mov    0x11c(%rbp),%eax
    2060:	83 c0 01             	add    $0x1,%eax
    2063:	89 85 1c 01 00 00    	mov    %eax,0x11c(%rbp)
    2069:	89 43 2a             	mov    %eax,0x2a(%rbx)
    206c:	8b 85 2c 01 00 00    	mov    0x12c(%rbp),%eax
    2072:	89 43 0c             	mov    %eax,0xc(%rbx)
    2075:	0f b7 85 30 01 00 00 	movzwl 0x130(%rbp),%eax
    207c:	66 89 47 04          	mov    %ax,0x4(%rdi)
    2080:	8b 85 28 01 00 00    	mov    0x128(%rbp),%eax
    2086:	8b 73 1c             	mov    0x1c(%rbx),%esi
    2089:	89 43 22             	mov    %eax,0x22(%rbx)
    208c:	48 8d 05 dd 6f 00 00 	lea    0x6fdd(%rip),%rax        # 9070 <_ZN3nb114nb__my_host_idE>
    2093:	8b 10                	mov    (%rax),%edx
    2095:	89 53 12             	mov    %edx,0x12(%rbx)
    2098:	0f b7 40 04          	movzwl 0x4(%rax),%eax
    209c:	66 89 43 16          	mov    %ax,0x16(%rbx)
    20a0:	8b 85 20 01 00 00    	mov    0x120(%rbp),%eax
    20a6:	c7 43 18 08 00 00 00 	movl   $0x8,0x18(%rbx)
    20ad:	89 43 26             	mov    %eax,0x26(%rbx)
    20b0:	31 c0                	xor    %eax,%eax
    20b2:	66 89 43 20          	mov    %ax,0x20(%rbx)
    20b6:	8d 46 0c             	lea    0xc(%rsi),%eax
    20b9:	40 f6 c6 01          	test   $0x1,%sil
    20bd:	74 0c                	je     20cb <_ZN3nb18nb__sendEPNS_16dynamic_struct_0EPci+0xab>
    20bf:	48 98                	cltq   
    20c1:	c6 04 03 00          	movb   $0x0,(%rbx,%rax,1)
    20c5:	8d 46 0d             	lea    0xd(%rsi),%eax
    20c8:	8b 73 1c             	mov    0x1c(%rbx),%esi
    20cb:	48 63 d0             	movslq %eax,%rdx
    20ce:	48 8d 0c 13          	lea    (%rbx,%rdx,1),%rcx
    20d2:	48 39 cf             	cmp    %rcx,%rdi
    20d5:	0f 83 f5 00 00 00    	jae    21d0 <_ZN3nb18nb__sendEPNS_16dynamic_struct_0EPci+0x1b0>
    20db:	48 83 ea 0d          	sub    $0xd,%rdx
    20df:	48 89 d8             	mov    %rbx,%rax
    20e2:	49 89 d0             	mov    %rdx,%r8
    20e5:	49 d1 e8             	shr    %r8
    20e8:	49 83 c0 01          	add    $0x1,%r8
    20ec:	48 83 fa 0d          	cmp    $0xd,%rdx
    20f0:	0f 86 de 00 00 00    	jbe    21d4 <_ZN3nb18nb__sendEPNS_16dynamic_struct_0EPci+0x1b4>
    20f6:	4c 89 c2             	mov    %r8,%rdx
    20f9:	66 0f ef c0          	pxor   %xmm0,%xmm0
    20fd:	48 c1 ea 03          	shr    $0x3,%rdx
    2101:	48 c1 e2 04          	shl    $0x4,%rdx
    2105:	48 01 da             	add    %rbx,%rdx
    2108:	0f 1f 84 00 00 00 00 	nopl   0x0(%rax,%rax,1)
    210f:	00 
    2110:	f3 0f 6f 50 0c       	movdqu 0xc(%rax),%xmm2
    2115:	48 83 c0 10          	add    $0x10,%rax
    2119:	66 0f fd c2          	paddw  %xmm2,%xmm0
    211d:	48 39 c2             	cmp    %rax,%rdx
    2120:	75 ee                	jne    2110 <_ZN3nb18nb__sendEPNS_16dynamic_struct_0EPci+0xf0>
    2122:	66 0f 6f c8          	movdqa %xmm0,%xmm1
    2126:	4d 89 c1             	mov    %r8,%r9
    2129:	66 0f 73 d9 08       	psrldq $0x8,%xmm1
    212e:	49 83 e1 f8          	and    $0xfffffffffffffff8,%r9
    2132:	66 0f fd c1          	paddw  %xmm1,%xmm0
    2136:	4a 8d 14 4f          	lea    (%rdi,%r9,2),%rdx
    213a:	66 0f 6f c8          	movdqa %xmm0,%xmm1
    213e:	66 0f 73 d9 04       	psrldq $0x4,%xmm1
    2143:	66 0f fd c1          	paddw  %xmm1,%xmm0
    2147:	66 0f 6f c8          	movdqa %xmm0,%xmm1
    214b:	66 0f 73 d9 02       	psrldq $0x2,%xmm1
    2150:	66 0f fd c1          	paddw  %xmm1,%xmm0
    2154:	66 0f c5 c0 00       	pextrw $0x0,%xmm0,%eax
    2159:	4d 39 c8             	cmp    %r9,%r8
    215c:	74 51                	je     21af <_ZN3nb18nb__sendEPNS_16dynamic_struct_0EPci+0x18f>
    215e:	4c 8d 42 02          	lea    0x2(%rdx),%r8
    2162:	66 03 02             	add    (%rdx),%ax
    2165:	4c 39 c1             	cmp    %r8,%rcx
    2168:	76 45                	jbe    21af <_ZN3nb18nb__sendEPNS_16dynamic_struct_0EPci+0x18f>
    216a:	4c 8d 42 04          	lea    0x4(%rdx),%r8
    216e:	66 03 42 02          	add    0x2(%rdx),%ax
    2172:	4c 39 c1             	cmp    %r8,%rcx
    2175:	76 38                	jbe    21af <_ZN3nb18nb__sendEPNS_16dynamic_struct_0EPci+0x18f>
    2177:	4c 8d 42 06          	lea    0x6(%rdx),%r8
    217b:	66 03 42 04          	add    0x4(%rdx),%ax
    217f:	4c 39 c1             	cmp    %r8,%rcx
    2182:	76 2b                	jbe    21af <_ZN3nb18nb__sendEPNS_16dynamic_struct_0EPci+0x18f>
    2184:	4c 8d 42 08          	lea    0x8(%rdx),%r8
    2188:	66 03 42 06          	add    0x6(%rdx),%ax
    218c:	4c 39 c1             	cmp    %r8,%rcx
    218f:	76 1e                	jbe    21af <_ZN3nb18nb__sendEPNS_16dynamic_struct_0EPci+0x18f>
    2191:	4c 8d 42 0a          	lea    0xa(%rdx),%r8
    2195:	66 03 42 08          	add    0x8(%rdx),%ax
    2199:	4c 39 c1             	cmp    %r8,%rcx
    219c:	76 11                	jbe    21af <_ZN3nb18nb__sendEPNS_16dynamic_struct_0EPci+0x18f>
    219e:	4c 8d 42 0c          	lea    0xc(%rdx),%r8
    21a2:	66 03 42 0a          	add    0xa(%rdx),%ax
    21a6:	4c 39 c1             	cmp    %r8,%rcx
    21a9:	76 04                	jbe    21af <_ZN3nb18nb__sendEPNS_16dynamic_struct_0EPci+0x18f>
    21ab:	66 03 42 0c          	add    0xc(%rdx),%ax
    21af:	66 89 43 20          	mov    %ax,0x20(%rbx)
    21b3:	e8 dc 13 00 00       	call   3594 <_ZN3nb115nb__send_packetEPci>
    21b8:	48 83 c4 08          	add    $0x8,%rsp
    21bc:	44 89 e0             	mov    %r12d,%eax
    21bf:	5b                   	pop    %rbx
    21c0:	5d                   	pop    %rbp
    21c1:	41 5c                	pop    %r12
    21c3:	41 5d                	pop    %r13
    21c5:	c3                   	ret    
    21c6:	66 2e 0f 1f 84 00 00 	cs nopw 0x0(%rax,%rax,1)
    21cd:	00 00 00 
    21d0:	31 c0                	xor    %eax,%eax
    21d2:	eb db                	jmp    21af <_ZN3nb18nb__sendEPNS_16dynamic_struct_0EPci+0x18f>
    21d4:	48 89 fa             	mov    %rdi,%rdx
    21d7:	31 c0                	xor    %eax,%eax
    21d9:	eb 83                	jmp    215e <_ZN3nb18nb__sendEPNS_16dynamic_struct_0EPci+0x13e>
    21db:	0f 1f 44 00 00       	nopl   0x0(%rax,%rax,1)

00000000000021e0 <_ZN3nb120nb__run_ingress_stepEPvi>:
    21e0:	f3 0f 1e fa          	endbr64 
    21e4:	8b 57 1c             	mov    0x1c(%rdi),%edx
    21e7:	45 31 c9             	xor    %r9d,%r9d
    21ea:	44 0f b7 47 20       	movzwl 0x20(%rdi),%r8d
    21ef:	48 89 f9             	mov    %rdi,%rcx
    21f2:	66 44 89 4f 20       	mov    %r9w,0x20(%rdi)
    21f7:	8d 42 0c             	lea    0xc(%rdx),%eax
    21fa:	f6 c2 01             	test   $0x1,%dl
    21fd:	74 09                	je     2208 <_ZN3nb120nb__run_ingress_stepEPvi+0x28>
    21ff:	48 98                	cltq   
    2201:	c6 04 07 00          	movb   $0x0,(%rdi,%rax,1)
    2205:	8d 42 0d             	lea    0xd(%rdx),%eax
    2208:	48 63 d0             	movslq %eax,%rdx
    220b:	4c 8d 49 0c          	lea    0xc(%rcx),%r9
    220f:	48 8d 34 11          	lea    (%rcx,%rdx,1),%rsi
    2213:	49 39 f1             	cmp    %rsi,%r9
    2216:	0f 83 b4 01 00 00    	jae    23d0 <_ZN3nb120nb__run_ingress_stepEPvi+0x1f0>
    221c:	48 83 ea 0d          	sub    $0xd,%rdx
    2220:	48 89 c8             	mov    %rcx,%rax
    2223:	48 89 d7             	mov    %rdx,%rdi
    2226:	48 d1 ef             	shr    %rdi
    2229:	48 83 c7 01          	add    $0x1,%rdi
    222d:	48 83 fa 0d          	cmp    $0xd,%rdx
    2231:	0f 86 a0 01 00 00    	jbe    23d7 <_ZN3nb120nb__run_ingress_stepEPvi+0x1f7>
    2237:	48 89 fa             	mov    %rdi,%rdx
    223a:	66 0f ef c0          	pxor   %xmm0,%xmm0
    223e:	48 c1 ea 03          	shr    $0x3,%rdx
    2242:	48 c1 e2 04          	shl    $0x4,%rdx
    2246:	48 01 ca             	add    %rcx,%rdx
    2249:	0f 1f 80 00 00 00 00 	nopl   0x0(%rax)
    2250:	f3 0f 6f 50 0c       	movdqu 0xc(%rax),%xmm2
    2255:	48 83 c0 10          	add    $0x10,%rax
    2259:	66 0f fd c2          	paddw  %xmm2,%xmm0
    225d:	48 39 d0             	cmp    %rdx,%rax
    2260:	75 ee                	jne    2250 <_ZN3nb120nb__run_ingress_stepEPvi+0x70>
    2262:	66 0f 6f c8          	movdqa %xmm0,%xmm1
    2266:	49 89 fa             	mov    %rdi,%r10
    2269:	66 0f 73 d9 08       	psrldq $0x8,%xmm1
    226e:	49 83 e2 f8          	and    $0xfffffffffffffff8,%r10
    2272:	66 0f fd c1          	paddw  %xmm1,%xmm0
    2276:	4b 8d 14 51          	lea    (%r9,%r10,2),%rdx
    227a:	66 0f 6f c8          	movdqa %xmm0,%xmm1
    227e:	66 0f 73 d9 04       	psrldq $0x4,%xmm1
    2283:	66 0f fd c1          	paddw  %xmm1,%xmm0
    2287:	66 0f 6f c8          	movdqa %xmm0,%xmm1
    228b:	66 0f 73 d9 02       	psrldq $0x2,%xmm1
    2290:	66 0f fd c1          	paddw  %xmm1,%xmm0
    2294:	66 0f c5 c0 00       	pextrw $0x0,%xmm0,%eax
    2299:	49 39 fa             	cmp    %rdi,%r10
    229c:	74 51                	je     22ef <_ZN3nb120nb__run_ingress_stepEPvi+0x10f>
    229e:	48 8d 7a 02          	lea    0x2(%rdx),%rdi
    22a2:	66 03 02             	add    (%rdx),%ax
    22a5:	48 39 fe             	cmp    %rdi,%rsi
    22a8:	76 45                	jbe    22ef <_ZN3nb120nb__run_ingress_stepEPvi+0x10f>
    22aa:	48 8d 7a 04          	lea    0x4(%rdx),%rdi
    22ae:	66 03 42 02          	add    0x2(%rdx),%ax
    22b2:	48 39 fe             	cmp    %rdi,%rsi
    22b5:	76 38                	jbe    22ef <_ZN3nb120nb__run_ingress_stepEPvi+0x10f>
    22b7:	48 8d 7a 06          	lea    0x6(%rdx),%rdi
    22bb:	66 03 42 04          	add    0x4(%rdx),%ax
    22bf:	48 39 fe             	cmp    %rdi,%rsi
    22c2:	76 2b                	jbe    22ef <_ZN3nb120nb__run_ingress_stepEPvi+0x10f>
    22c4:	48 8d 7a 08          	lea    0x8(%rdx),%rdi
    22c8:	66 03 42 06          	add    0x6(%rdx),%ax
    22cc:	48 39 fe             	cmp    %rdi,%rsi
    22cf:	76 1e                	jbe    22ef <_ZN3nb120nb__run_ingress_stepEPvi+0x10f>
    22d1:	48 8d 7a 0a          	lea    0xa(%rdx),%rdi
    22d5:	66 03 42 08          	add    0x8(%rdx),%ax
    22d9:	48 39 fe             	cmp    %rdi,%rsi
    22dc:	76 11                	jbe    22ef <_ZN3nb120nb__run_ingress_stepEPvi+0x10f>
    22de:	48 8d 7a 0c          	lea    0xc(%rdx),%rdi
    22e2:	66 03 42 0a          	add    0xa(%rdx),%ax
    22e6:	48 39 fe             	cmp    %rdi,%rsi
    22e9:	76 04                	jbe    22ef <_ZN3nb120nb__run_ingress_stepEPvi+0x10f>
    22eb:	66 03 42 0c          	add    0xc(%rdx),%ax
    22ef:	66 44 89 41 20       	mov    %r8w,0x20(%rcx)
    22f4:	66 41 39 c0          	cmp    %ax,%r8w
    22f8:	74 06                	je     2300 <_ZN3nb120nb__run_ingress_stepEPvi+0x120>
    22fa:	c3                   	ret    
    22fb:	0f 1f 44 00 00       	nopl   0x0(%rax,%rax,1)
    2300:	48 8d 05 69 6d 00 00 	lea    0x6d69(%rip),%rax        # 9070 <_ZN3nb114nb__my_host_idE>
    2307:	41 54                	push   %r12
    2309:	55                   	push   %rbp
    230a:	53                   	push   %rbx
    230b:	8b 18                	mov    (%rax),%ebx
    230d:	39 59 0c             	cmp    %ebx,0xc(%rcx)
    2310:	74 0e                	je     2320 <_ZN3nb120nb__run_ingress_stepEPvi+0x140>
    2312:	5b                   	pop    %rbx
    2313:	5d                   	pop    %rbp
    2314:	41 5c                	pop    %r12
    2316:	c3                   	ret    
    2317:	66 0f 1f 84 00 00 00 	nopw   0x0(%rax,%rax,1)
    231e:	00 00 
    2320:	0f b7 40 04          	movzwl 0x4(%rax),%eax
    2324:	66 41 39 41 04       	cmp    %ax,0x4(%r9)
    2329:	75 e7                	jne    2312 <_ZN3nb120nb__run_ingress_stepEPvi+0x132>
    232b:	48 8d 05 36 6d 00 00 	lea    0x6d36(%rip),%rax        # 9068 <_ZN3nb113nb__net_stateE>
    2332:	48 63 59 26          	movslq 0x26(%rcx),%rbx
    2336:	4c 8d 61 12          	lea    0x12(%rcx),%r12
    233a:	4c 63 49 22          	movslq 0x22(%rcx),%r9
    233e:	48 8b 10             	mov    (%rax),%rdx
    2341:	49 89 db             	mov    %rbx,%r11
    2344:	4c 63 82 00 2c 00 00 	movslq 0x2c00(%rdx),%r8
    234b:	45 85 c0             	test   %r8d,%r8d
    234e:	7e c2                	jle    2312 <_ZN3nb120nb__run_ingress_stepEPvi+0x132>
    2350:	48 8d aa 00 20 00 00 	lea    0x2000(%rdx),%rbp
    2357:	31 c0                	xor    %eax,%eax
    2359:	48 89 ee             	mov    %rbp,%rsi
    235c:	8b bc 82 00 10 00 00 	mov    0x1000(%rdx,%rax,4),%edi
    2363:	4c 63 d0             	movslq %eax,%r10
    2366:	4c 39 cf             	cmp    %r9,%rdi
    2369:	75 15                	jne    2380 <_ZN3nb120nb__run_ingress_stepEPvi+0x1a0>
    236b:	8b bc 82 00 18 00 00 	mov    0x1800(%rdx,%rax,4),%edi
    2372:	48 39 df             	cmp    %rbx,%rdi
    2375:	75 09                	jne    2380 <_ZN3nb120nb__run_ingress_stepEPvi+0x1a0>
    2377:	41 8b 3c 24          	mov    (%r12),%edi
    237b:	39 3e                	cmp    %edi,(%rsi)
    237d:	74 62                	je     23e1 <_ZN3nb120nb__run_ingress_stepEPvi+0x201>
    237f:	90                   	nop
    2380:	48 83 c0 01          	add    $0x1,%rax
    2384:	48 83 c6 06          	add    $0x6,%rsi
    2388:	4c 39 c0             	cmp    %r8,%rax
    238b:	75 cf                	jne    235c <_ZN3nb120nb__run_ingress_stepEPvi+0x17c>
    238d:	31 c0                	xor    %eax,%eax
    238f:	8b b4 82 00 10 00 00 	mov    0x1000(%rdx,%rax,4),%esi
    2396:	48 63 f8             	movslq %eax,%rdi
    2399:	4c 39 ce             	cmp    %r9,%rsi
    239c:	75 1d                	jne    23bb <_ZN3nb120nb__run_ingress_stepEPvi+0x1db>
    239e:	8b b4 82 00 18 00 00 	mov    0x1800(%rdx,%rax,4),%esi
    23a5:	85 f6                	test   %esi,%esi
    23a7:	75 12                	jne    23bb <_ZN3nb120nb__run_ingress_stepEPvi+0x1db>
    23a9:	48 8d 35 ae 6c 00 00 	lea    0x6cae(%rip),%rsi        # 905e <_ZN3nb128nb__wildcard_host_identifierE>
    23b0:	8b 1e                	mov    (%rsi),%ebx
    23b2:	39 5d 00             	cmp    %ebx,0x0(%rbp)
    23b5:	0f 84 f1 00 00 00    	je     24ac <_ZN3nb120nb__run_ingress_stepEPvi+0x2cc>
    23bb:	48 83 c0 01          	add    $0x1,%rax
    23bf:	48 83 c5 06          	add    $0x6,%rbp
    23c3:	4c 39 c0             	cmp    %r8,%rax
    23c6:	75 c7                	jne    238f <_ZN3nb120nb__run_ingress_stepEPvi+0x1af>
    23c8:	e9 45 ff ff ff       	jmp    2312 <_ZN3nb120nb__run_ingress_stepEPvi+0x132>
    23cd:	0f 1f 00             	nopl   (%rax)
    23d0:	31 c0                	xor    %eax,%eax
    23d2:	e9 18 ff ff ff       	jmp    22ef <_ZN3nb120nb__run_ingress_stepEPvi+0x10f>
    23d7:	4c 89 ca             	mov    %r9,%rdx
    23da:	31 c0                	xor    %eax,%eax
    23dc:	e9 bd fe ff ff       	jmp    229e <_ZN3nb120nb__run_ingress_stepEPvi+0xbe>
    23e1:	41 0f b7 7c 24 04    	movzwl 0x4(%r12),%edi
    23e7:	66 39 7e 04          	cmp    %di,0x4(%rsi)
    23eb:	75 93                	jne    2380 <_ZN3nb120nb__run_ingress_stepEPvi+0x1a0>
    23ed:	4a 8b 1c d2          	mov    (%rdx,%r10,8),%rbx
    23f1:	48 85 db             	test   %rbx,%rbx
    23f4:	74 97                	je     238d <_ZN3nb120nb__run_ingress_stepEPvi+0x1ad>
    23f6:	8b 83 18 01 00 00    	mov    0x118(%rbx),%eax
    23fc:	8b 69 2a             	mov    0x2a(%rcx),%ebp
    23ff:	48 89 59 04          	mov    %rbx,0x4(%rcx)
    2403:	85 c0                	test   %eax,%eax
    2405:	74 28                	je     242f <_ZN3nb120nb__run_ingress_stepEPvi+0x24f>
    2407:	83 c0 01             	add    $0x1,%eax
    240a:	39 c5                	cmp    %eax,%ebp
    240c:	74 21                	je     242f <_ZN3nb120nb__run_ingress_stepEPvi+0x24f>
    240e:	89 e8                	mov    %ebp,%eax
    2410:	83 e0 1f             	and    $0x1f,%eax
    2413:	48 89 4c c3 10       	mov    %rcx,0x10(%rbx,%rax,8)
    2418:	3b ab 24 01 00 00    	cmp    0x124(%rbx),%ebp
    241e:	0f 86 ee fe ff ff    	jbe    2312 <_ZN3nb120nb__run_ingress_stepEPvi+0x132>
    2424:	89 ab 24 01 00 00    	mov    %ebp,0x124(%rbx)
    242a:	e9 e3 fe ff ff       	jmp    2312 <_ZN3nb120nb__run_ingress_stepEPvi+0x132>
    242f:	8b 41 1c             	mov    0x1c(%rcx),%eax
    2432:	48 8b bb 10 01 00 00 	mov    0x110(%rbx),%rdi
    2439:	48 8d 71 2e          	lea    0x2e(%rcx),%rsi
    243d:	8d 50 de             	lea    -0x22(%rax),%edx
    2440:	e8 0b f0 ff ff       	call   1450 <_ZN3nb121nb__insert_data_queueEP12data_queue_tPci>
    2445:	89 ab 18 01 00 00    	mov    %ebp,0x118(%rbx)
    244b:	83 c5 01             	add    $0x1,%ebp
    244e:	39 ab 24 01 00 00    	cmp    %ebp,0x124(%rbx)
    2454:	73 3d                	jae    2493 <_ZN3nb120nb__run_ingress_stepEPvi+0x2b3>
    2456:	e9 b7 fe ff ff       	jmp    2312 <_ZN3nb120nb__run_ingress_stepEPvi+0x132>
    245b:	0f 1f 44 00 00       	nopl   0x0(%rax,%rax,1)
    2460:	8b 46 1c             	mov    0x1c(%rsi),%eax
    2463:	48 8b bb 10 01 00 00 	mov    0x110(%rbx),%rdi
    246a:	48 83 c6 2e          	add    $0x2e,%rsi
    246e:	8d 50 de             	lea    -0x22(%rax),%edx
    2471:	e8 da ef ff ff       	call   1450 <_ZN3nb121nb__insert_data_queueEP12data_queue_tPci>
    2476:	89 ab 18 01 00 00    	mov    %ebp,0x118(%rbx)
    247c:	83 c5 01             	add    $0x1,%ebp
    247f:	4a c7 04 e3 00 00 00 	movq   $0x0,(%rbx,%r12,8)
    2486:	00 
    2487:	39 ab 24 01 00 00    	cmp    %ebp,0x124(%rbx)
    248d:	0f 82 7f fe ff ff    	jb     2312 <_ZN3nb120nb__run_ingress_stepEPvi+0x132>
    2493:	41 89 ec             	mov    %ebp,%r12d
    2496:	41 83 e4 1f          	and    $0x1f,%r12d
    249a:	49 83 c4 02          	add    $0x2,%r12
    249e:	4a 8b 34 e3          	mov    (%rbx,%r12,8),%rsi
    24a2:	48 85 f6             	test   %rsi,%rsi
    24a5:	75 b9                	jne    2460 <_ZN3nb120nb__run_ingress_stepEPvi+0x280>
    24a7:	e9 66 fe ff ff       	jmp    2312 <_ZN3nb120nb__run_ingress_stepEPvi+0x132>
    24ac:	0f b7 5e 04          	movzwl 0x4(%rsi),%ebx
    24b0:	66 39 5d 04          	cmp    %bx,0x4(%rbp)
    24b4:	0f 85 01 ff ff ff    	jne    23bb <_ZN3nb120nb__run_ingress_stepEPvi+0x1db>
    24ba:	48 8b 04 fa          	mov    (%rdx,%rdi,8),%rax
    24be:	48 85 c0             	test   %rax,%rax
    24c1:	0f 84 4b fe ff ff    	je     2312 <_ZN3nb120nb__run_ingress_stepEPvi+0x132>
    24c7:	48 8b 38             	mov    (%rax),%rdi
    24ca:	5b                   	pop    %rbx
    24cb:	4c 89 e2             	mov    %r12,%rdx
    24ce:	44 89 de             	mov    %r11d,%esi
    24d1:	5d                   	pop    %rbp
    24d2:	41 5c                	pop    %r12
    24d4:	e9 d7 ef ff ff       	jmp    14b0 <_ZN3nb123nb__insert_accept_queueEP14accept_queue_tjPcPv>
    24d9:	0f 1f 80 00 00 00 00 	nopl   0x0(%rax)

00000000000024e0 <_ZN3nb212nb__net_initEv>:
    24e0:	f3 0f 1e fa          	endbr64 
    24e4:	48 83 ec 08          	sub    $0x8,%rsp
    24e8:	e8 83 0b 00 00       	call   3070 <_ZN3nb215nb__init_timersEv>
    24ed:	bf 08 00 00 00       	mov    $0x8,%edi
    24f2:	e8 79 ed ff ff       	call   1270 <malloc@plt>
    24f7:	48 8d 15 52 6b 00 00 	lea    0x6b52(%rip),%rdx        # 9050 <_ZN3nb213nb__net_stateE>
    24fe:	c7 80 00 2c 00 00 00 	movl   $0x0,0x2c00(%rax)
    2505:	00 00 00 
    2508:	48 89 02             	mov    %rax,(%rdx)
    250b:	48 83 c4 08          	add    $0x8,%rsp
    250f:	c3                   	ret    

0000000000002510 <_ZN3nb213nb__establishEPcjjPFviPNS_16dynamic_struct_2EE>:
    2510:	f3 0f 1e fa          	endbr64 
    2514:	41 56                	push   %r14
    2516:	49 89 ce             	mov    %rcx,%r14
    2519:	41 55                	push   %r13
    251b:	49 89 fd             	mov    %rdi,%r13
    251e:	bf 38 01 00 00       	mov    $0x138,%edi
    2523:	41 54                	push   %r12
    2525:	55                   	push   %rbp
    2526:	89 d5                	mov    %edx,%ebp
    2528:	53                   	push   %rbx
    2529:	89 f3                	mov    %esi,%ebx
    252b:	e8 40 ed ff ff       	call   1270 <malloc@plt>
    2530:	49 89 c4             	mov    %rax,%r12
    2533:	4c 89 70 08          	mov    %r14,0x8(%rax)
    2537:	48 8b 05 ca 3a 00 00 	mov    0x3aca(%rip),%rax        # 6008 <_IO_stdin_used+0x8>
    253e:	49 8d 7c 24 18       	lea    0x18(%r12),%rdi
    2543:	4c 89 e6             	mov    %r12,%rsi
    2546:	49 c7 44 24 10 00 00 	movq   $0x0,0x10(%r12)
    254d:	00 00 
    254f:	49 89 84 24 18 01 00 	mov    %rax,0x118(%r12)
    2556:	00 
    2557:	48 83 e7 f8          	and    $0xfffffffffffffff8,%rdi
    255b:	44 89 e0             	mov    %r12d,%eax
    255e:	49 c7 84 24 08 01 00 	movq   $0x0,0x108(%r12)
    2565:	00 00 00 00 00 
    256a:	29 f8                	sub    %edi,%eax
    256c:	8d 88 10 01 00 00    	lea    0x110(%rax),%ecx
    2572:	31 c0                	xor    %eax,%eax
    2574:	c1 e9 03             	shr    $0x3,%ecx
    2577:	f3 48 ab             	rep stos %rax,%es:(%rdi)
    257a:	31 ff                	xor    %edi,%edi
    257c:	41 c7 84 24 24 01 00 	movl   $0x0,0x124(%r12)
    2583:	00 00 00 00 00 
    2588:	41 ff d6             	call   *%r14
    258b:	41 8b 45 00          	mov    0x0(%r13),%eax
    258f:	41 89 9c 24 28 01 00 	mov    %ebx,0x128(%r12)
    2596:	00 
    2597:	41 89 ac 24 20 01 00 	mov    %ebp,0x120(%r12)
    259e:	00 
    259f:	41 89 84 24 2c 01 00 	mov    %eax,0x12c(%r12)
    25a6:	00 
    25a7:	41 0f b7 45 04       	movzwl 0x4(%r13),%eax
    25ac:	66 41 89 84 24 30 01 	mov    %ax,0x130(%r12)
    25b3:	00 00 
    25b5:	e8 a6 f1 ff ff       	call   1760 <_ZN3nb218nb__new_data_queueEv>
    25ba:	49 89 84 24 10 01 00 	mov    %rax,0x110(%r12)
    25c1:	00 
    25c2:	e8 f9 f1 ff ff       	call   17c0 <_ZN3nb220nb__new_accept_queueEv>
    25c7:	49 89 04 24          	mov    %rax,(%r12)
    25cb:	48 8d 05 7e 6a 00 00 	lea    0x6a7e(%rip),%rax        # 9050 <_ZN3nb213nb__net_stateE>
    25d2:	48 8b 10             	mov    (%rax),%rdx
    25d5:	48 63 82 00 2c 00 00 	movslq 0x2c00(%rdx),%rax
    25dc:	8d 48 01             	lea    0x1(%rax),%ecx
    25df:	89 8a 00 2c 00 00    	mov    %ecx,0x2c00(%rdx)
    25e5:	89 ac 82 00 10 00 00 	mov    %ebp,0x1000(%rdx,%rax,4)
    25ec:	4c 89 24 c2          	mov    %r12,(%rdx,%rax,8)
    25f0:	89 9c 82 00 18 00 00 	mov    %ebx,0x1800(%rdx,%rax,4)
    25f7:	48 8d 04 40          	lea    (%rax,%rax,2),%rax
    25fb:	48 8d 84 42 00 20 00 	lea    0x2000(%rdx,%rax,2),%rax
    2602:	00 
    2603:	41 8b 55 00          	mov    0x0(%r13),%edx
    2607:	89 10                	mov    %edx,(%rax)
    2609:	41 0f b7 55 04       	movzwl 0x4(%r13),%edx
    260e:	66 89 50 04          	mov    %dx,0x4(%rax)
    2612:	4c 89 e0             	mov    %r12,%rax
    2615:	5b                   	pop    %rbx
    2616:	5d                   	pop    %rbp
    2617:	41 5c                	pop    %r12
    2619:	41 5d                	pop    %r13
    261b:	41 5e                	pop    %r14
    261d:	c3                   	ret    
    261e:	66 90                	xchg   %ax,%ax

0000000000002620 <_ZN3nb214nb__destablishEPNS_16dynamic_struct_2E>:
    2620:	f3 0f 1e fa          	endbr64 
    2624:	55                   	push   %rbp
    2625:	48 89 fd             	mov    %rdi,%rbp
    2628:	53                   	push   %rbx
    2629:	48 83 ec 08          	sub    $0x8,%rsp
    262d:	48 8d 05 1c 6a 00 00 	lea    0x6a1c(%rip),%rax        # 9050 <_ZN3nb213nb__net_stateE>
    2634:	8b b7 20 01 00 00    	mov    0x120(%rdi),%esi
    263a:	44 8b 97 28 01 00 00 	mov    0x128(%rdi),%r10d
    2641:	48 8b 08             	mov    (%rax),%rcx
    2644:	44 8b 89 00 2c 00 00 	mov    0x2c00(%rcx),%r9d
    264b:	45 85 c9             	test   %r9d,%r9d
    264e:	0f 8e 9d 00 00 00    	jle    26f1 <_ZN3nb214nb__destablishEPNS_16dynamic_struct_2E+0xd1>
    2654:	4c 8d 9f 2c 01 00 00 	lea    0x12c(%rdi),%r11
    265b:	48 8d 91 00 20 00 00 	lea    0x2000(%rcx),%rdx
    2662:	4d 63 c1             	movslq %r9d,%r8
    2665:	31 c0                	xor    %eax,%eax
    2667:	eb 14                	jmp    267d <_ZN3nb214nb__destablishEPNS_16dynamic_struct_2E+0x5d>
    2669:	0f 1f 80 00 00 00 00 	nopl   0x0(%rax)
    2670:	48 83 c0 01          	add    $0x1,%rax
    2674:	48 83 c2 06          	add    $0x6,%rdx
    2678:	4c 39 c0             	cmp    %r8,%rax
    267b:	74 74                	je     26f1 <_ZN3nb214nb__destablishEPNS_16dynamic_struct_2E+0xd1>
    267d:	48 63 f8             	movslq %eax,%rdi
    2680:	39 b4 81 00 10 00 00 	cmp    %esi,0x1000(%rcx,%rax,4)
    2687:	75 e7                	jne    2670 <_ZN3nb214nb__destablishEPNS_16dynamic_struct_2E+0x50>
    2689:	44 39 94 81 00 18 00 	cmp    %r10d,0x1800(%rcx,%rax,4)
    2690:	00 
    2691:	75 dd                	jne    2670 <_ZN3nb214nb__destablishEPNS_16dynamic_struct_2E+0x50>
    2693:	41 8b 1b             	mov    (%r11),%ebx
    2696:	39 1a                	cmp    %ebx,(%rdx)
    2698:	75 d6                	jne    2670 <_ZN3nb214nb__destablishEPNS_16dynamic_struct_2E+0x50>
    269a:	41 0f b7 5b 04       	movzwl 0x4(%r11),%ebx
    269f:	66 39 5a 04          	cmp    %bx,0x4(%rdx)
    26a3:	75 cb                	jne    2670 <_ZN3nb214nb__destablishEPNS_16dynamic_struct_2E+0x50>
    26a5:	41 83 e9 01          	sub    $0x1,%r9d
    26a9:	44 89 89 00 2c 00 00 	mov    %r9d,0x2c00(%rcx)
    26b0:	4d 63 c9             	movslq %r9d,%r9
    26b3:	42 8b 84 89 00 10 00 	mov    0x1000(%rcx,%r9,4),%eax
    26ba:	00 
    26bb:	89 84 b9 00 10 00 00 	mov    %eax,0x1000(%rcx,%rdi,4)
    26c2:	4a 8b 04 c9          	mov    (%rcx,%r9,8),%rax
    26c6:	48 89 04 f9          	mov    %rax,(%rcx,%rdi,8)
    26ca:	42 8b 84 89 00 18 00 	mov    0x1800(%rcx,%r9,4),%eax
    26d1:	00 
    26d2:	89 84 b9 00 18 00 00 	mov    %eax,0x1800(%rcx,%rdi,4)
    26d9:	4b 8d 04 49          	lea    (%r9,%r9,2),%rax
    26dd:	48 8d 84 41 00 20 00 	lea    0x2000(%rcx,%rax,2),%rax
    26e4:	00 
    26e5:	8b 0a                	mov    (%rdx),%ecx
    26e7:	89 08                	mov    %ecx,(%rax)
    26e9:	0f b7 52 04          	movzwl 0x4(%rdx),%edx
    26ed:	66 89 50 04          	mov    %dx,0x4(%rax)
    26f1:	48 8b bd 10 01 00 00 	mov    0x110(%rbp),%rdi
    26f8:	e8 93 f0 ff ff       	call   1790 <_ZN3nb219nb__free_data_queueEP12data_queue_t>
    26fd:	48 8b 7d 00          	mov    0x0(%rbp),%rdi
    2701:	e8 ea f0 ff ff       	call   17f0 <_ZN3nb221nb__free_accept_queueEP14accept_queue_t>
    2706:	48 83 c4 08          	add    $0x8,%rsp
    270a:	48 89 ef             	mov    %rbp,%rdi
    270d:	5b                   	pop    %rbx
    270e:	5d                   	pop    %rbp
    270f:	e9 4c eb ff ff       	jmp    1260 <free@plt>
    2714:	66 66 2e 0f 1f 84 00 	data16 cs nopw 0x0(%rax,%rax,1)
    271b:	00 00 00 00 
    271f:	90                   	nop

0000000000002720 <_ZN3nb28nb__sendEPNS_16dynamic_struct_2EPci>:
    2720:	f3 0f 1e fa          	endbr64 
    2724:	41 55                	push   %r13
    2726:	49 89 f5             	mov    %rsi,%r13
    2729:	41 54                	push   %r12
    272b:	41 89 d4             	mov    %edx,%r12d
    272e:	55                   	push   %rbp
    272f:	48 89 fd             	mov    %rdi,%rbp
    2732:	53                   	push   %rbx
    2733:	48 83 ec 08          	sub    $0x8,%rsp
    2737:	e8 e9 10 00 00       	call   3825 <_ZN3nb223nb__request_send_bufferEv>
    273c:	49 63 d4             	movslq %r12d,%rdx
    273f:	4c 89 ee             	mov    %r13,%rsi
    2742:	48 8d 78 2e          	lea    0x2e(%rax),%rdi
    2746:	48 89 c3             	mov    %rax,%rbx
    2749:	e8 b2 ea ff ff       	call   1200 <memcpy@plt>
    274e:	41 8d 44 24 22       	lea    0x22(%r12),%eax
    2753:	48 8d 7b 0c          	lea    0xc(%rbx),%rdi
    2757:	89 43 1c             	mov    %eax,0x1c(%rbx)
    275a:	8b 85 1c 01 00 00    	mov    0x11c(%rbp),%eax
    2760:	83 c0 01             	add    $0x1,%eax
    2763:	89 85 1c 01 00 00    	mov    %eax,0x11c(%rbp)
    2769:	89 43 2a             	mov    %eax,0x2a(%rbx)
    276c:	8b 85 2c 01 00 00    	mov    0x12c(%rbp),%eax
    2772:	89 43 0c             	mov    %eax,0xc(%rbx)
    2775:	0f b7 85 30 01 00 00 	movzwl 0x130(%rbp),%eax
    277c:	66 89 47 04          	mov    %ax,0x4(%rdi)
    2780:	8b 85 28 01 00 00    	mov    0x128(%rbp),%eax
    2786:	8b 73 1c             	mov    0x1c(%rbx),%esi
    2789:	89 43 22             	mov    %eax,0x22(%rbx)
    278c:	48 8d 05 c5 68 00 00 	lea    0x68c5(%rip),%rax        # 9058 <_ZN3nb214nb__my_host_idE>
    2793:	8b 10                	mov    (%rax),%edx
    2795:	89 53 12             	mov    %edx,0x12(%rbx)
    2798:	0f b7 40 04          	movzwl 0x4(%rax),%eax
    279c:	66 89 43 16          	mov    %ax,0x16(%rbx)
    27a0:	8b 85 20 01 00 00    	mov    0x120(%rbp),%eax
    27a6:	c7 43 18 08 00 00 00 	movl   $0x8,0x18(%rbx)
    27ad:	89 43 26             	mov    %eax,0x26(%rbx)
    27b0:	31 c0                	xor    %eax,%eax
    27b2:	66 89 43 20          	mov    %ax,0x20(%rbx)
    27b6:	8d 46 0c             	lea    0xc(%rsi),%eax
    27b9:	40 f6 c6 01          	test   $0x1,%sil
    27bd:	74 0c                	je     27cb <_ZN3nb28nb__sendEPNS_16dynamic_struct_2EPci+0xab>
    27bf:	48 98                	cltq   
    27c1:	c6 04 03 00          	movb   $0x0,(%rbx,%rax,1)
    27c5:	8d 46 0d             	lea    0xd(%rsi),%eax
    27c8:	8b 73 1c             	mov    0x1c(%rbx),%esi
    27cb:	48 63 d0             	movslq %eax,%rdx
    27ce:	48 8d 0c 13          	lea    (%rbx,%rdx,1),%rcx
    27d2:	48 39 cf             	cmp    %rcx,%rdi
    27d5:	0f 83 f5 00 00 00    	jae    28d0 <_ZN3nb28nb__sendEPNS_16dynamic_struct_2EPci+0x1b0>
    27db:	48 83 ea 0d          	sub    $0xd,%rdx
    27df:	48 89 d8             	mov    %rbx,%rax
    27e2:	49 89 d0             	mov    %rdx,%r8
    27e5:	49 d1 e8             	shr    %r8
    27e8:	49 83 c0 01          	add    $0x1,%r8
    27ec:	48 83 fa 0d          	cmp    $0xd,%rdx
    27f0:	0f 86 de 00 00 00    	jbe    28d4 <_ZN3nb28nb__sendEPNS_16dynamic_struct_2EPci+0x1b4>
    27f6:	4c 89 c2             	mov    %r8,%rdx
    27f9:	66 0f ef c0          	pxor   %xmm0,%xmm0
    27fd:	48 c1 ea 03          	shr    $0x3,%rdx
    2801:	48 c1 e2 04          	shl    $0x4,%rdx
    2805:	48 01 da             	add    %rbx,%rdx
    2808:	0f 1f 84 00 00 00 00 	nopl   0x0(%rax,%rax,1)
    280f:	00 
    2810:	f3 0f 6f 50 0c       	movdqu 0xc(%rax),%xmm2
    2815:	48 83 c0 10          	add    $0x10,%rax
    2819:	66 0f fd c2          	paddw  %xmm2,%xmm0
    281d:	48 39 c2             	cmp    %rax,%rdx
    2820:	75 ee                	jne    2810 <_ZN3nb28nb__sendEPNS_16dynamic_struct_2EPci+0xf0>
    2822:	66 0f 6f c8          	movdqa %xmm0,%xmm1
    2826:	4d 89 c1             	mov    %r8,%r9
    2829:	66 0f 73 d9 08       	psrldq $0x8,%xmm1
    282e:	49 83 e1 f8          	and    $0xfffffffffffffff8,%r9
    2832:	66 0f fd c1          	paddw  %xmm1,%xmm0
    2836:	4a 8d 14 4f          	lea    (%rdi,%r9,2),%rdx
    283a:	66 0f 6f c8          	movdqa %xmm0,%xmm1
    283e:	66 0f 73 d9 04       	psrldq $0x4,%xmm1
    2843:	66 0f fd c1          	paddw  %xmm1,%xmm0
    2847:	66 0f 6f c8          	movdqa %xmm0,%xmm1
    284b:	66 0f 73 d9 02       	psrldq $0x2,%xmm1
    2850:	66 0f fd c1          	paddw  %xmm1,%xmm0
    2854:	66 0f c5 c0 00       	pextrw $0x0,%xmm0,%eax
    2859:	4d 39 c8             	cmp    %r9,%r8
    285c:	74 51                	je     28af <_ZN3nb28nb__sendEPNS_16dynamic_struct_2EPci+0x18f>
    285e:	4c 8d 42 02          	lea    0x2(%rdx),%r8
    2862:	66 03 02             	add    (%rdx),%ax
    2865:	4c 39 c1             	cmp    %r8,%rcx
    2868:	76 45                	jbe    28af <_ZN3nb28nb__sendEPNS_16dynamic_struct_2EPci+0x18f>
    286a:	4c 8d 42 04          	lea    0x4(%rdx),%r8
    286e:	66 03 42 02          	add    0x2(%rdx),%ax
    2872:	4c 39 c1             	cmp    %r8,%rcx
    2875:	76 38                	jbe    28af <_ZN3nb28nb__sendEPNS_16dynamic_struct_2EPci+0x18f>
    2877:	4c 8d 42 06          	lea    0x6(%rdx),%r8
    287b:	66 03 42 04          	add    0x4(%rdx),%ax
    287f:	4c 39 c1             	cmp    %r8,%rcx
    2882:	76 2b                	jbe    28af <_ZN3nb28nb__sendEPNS_16dynamic_struct_2EPci+0x18f>
    2884:	4c 8d 42 08          	lea    0x8(%rdx),%r8
    2888:	66 03 42 06          	add    0x6(%rdx),%ax
    288c:	4c 39 c1             	cmp    %r8,%rcx
    288f:	76 1e                	jbe    28af <_ZN3nb28nb__sendEPNS_16dynamic_struct_2EPci+0x18f>
    2891:	4c 8d 42 0a          	lea    0xa(%rdx),%r8
    2895:	66 03 42 08          	add    0x8(%rdx),%ax
    2899:	4c 39 c1             	cmp    %r8,%rcx
    289c:	76 11                	jbe    28af <_ZN3nb28nb__sendEPNS_16dynamic_struct_2EPci+0x18f>
    289e:	4c 8d 42 0c          	lea    0xc(%rdx),%r8
    28a2:	66 03 42 0a          	add    0xa(%rdx),%ax
    28a6:	4c 39 c1             	cmp    %r8,%rcx
    28a9:	76 04                	jbe    28af <_ZN3nb28nb__sendEPNS_16dynamic_struct_2EPci+0x18f>
    28ab:	66 03 42 0c          	add    0xc(%rdx),%ax
    28af:	66 89 43 20          	mov    %ax,0x20(%rbx)
    28b3:	e8 75 0e 00 00       	call   372d <_ZN3nb215nb__send_packetEPci>
    28b8:	48 83 c4 08          	add    $0x8,%rsp
    28bc:	44 89 e0             	mov    %r12d,%eax
    28bf:	5b                   	pop    %rbx
    28c0:	5d                   	pop    %rbp
    28c1:	41 5c                	pop    %r12
    28c3:	41 5d                	pop    %r13
    28c5:	c3                   	ret    
    28c6:	66 2e 0f 1f 84 00 00 	cs nopw 0x0(%rax,%rax,1)
    28cd:	00 00 00 
    28d0:	31 c0                	xor    %eax,%eax
    28d2:	eb db                	jmp    28af <_ZN3nb28nb__sendEPNS_16dynamic_struct_2EPci+0x18f>
    28d4:	48 89 fa             	mov    %rdi,%rdx
    28d7:	31 c0                	xor    %eax,%eax
    28d9:	eb 83                	jmp    285e <_ZN3nb28nb__sendEPNS_16dynamic_struct_2EPci+0x13e>
    28db:	0f 1f 44 00 00       	nopl   0x0(%rax,%rax,1)

00000000000028e0 <_ZN3nb220nb__run_ingress_stepEPvi>:
    28e0:	f3 0f 1e fa          	endbr64 
    28e4:	8b 57 1c             	mov    0x1c(%rdi),%edx
    28e7:	45 31 c9             	xor    %r9d,%r9d
    28ea:	44 0f b7 47 20       	movzwl 0x20(%rdi),%r8d
    28ef:	48 89 f9             	mov    %rdi,%rcx
    28f2:	66 44 89 4f 20       	mov    %r9w,0x20(%rdi)
    28f7:	8d 42 0c             	lea    0xc(%rdx),%eax
    28fa:	f6 c2 01             	test   $0x1,%dl
    28fd:	74 09                	je     2908 <_ZN3nb220nb__run_ingress_stepEPvi+0x28>
    28ff:	48 98                	cltq   
    2901:	c6 04 07 00          	movb   $0x0,(%rdi,%rax,1)
    2905:	8d 42 0d             	lea    0xd(%rdx),%eax
    2908:	48 63 d0             	movslq %eax,%rdx
    290b:	4c 8d 49 0c          	lea    0xc(%rcx),%r9
    290f:	48 8d 34 11          	lea    (%rcx,%rdx,1),%rsi
    2913:	49 39 f1             	cmp    %rsi,%r9
    2916:	0f 83 b4 01 00 00    	jae    2ad0 <_ZN3nb220nb__run_ingress_stepEPvi+0x1f0>
    291c:	48 83 ea 0d          	sub    $0xd,%rdx
    2920:	48 89 c8             	mov    %rcx,%rax
    2923:	48 89 d7             	mov    %rdx,%rdi
    2926:	48 d1 ef             	shr    %rdi
    2929:	48 83 c7 01          	add    $0x1,%rdi
    292d:	48 83 fa 0d          	cmp    $0xd,%rdx
    2931:	0f 86 a0 01 00 00    	jbe    2ad7 <_ZN3nb220nb__run_ingress_stepEPvi+0x1f7>
    2937:	48 89 fa             	mov    %rdi,%rdx
    293a:	66 0f ef c0          	pxor   %xmm0,%xmm0
    293e:	48 c1 ea 03          	shr    $0x3,%rdx
    2942:	48 c1 e2 04          	shl    $0x4,%rdx
    2946:	48 01 ca             	add    %rcx,%rdx
    2949:	0f 1f 80 00 00 00 00 	nopl   0x0(%rax)
    2950:	f3 0f 6f 50 0c       	movdqu 0xc(%rax),%xmm2
    2955:	48 83 c0 10          	add    $0x10,%rax
    2959:	66 0f fd c2          	paddw  %xmm2,%xmm0
    295d:	48 39 d0             	cmp    %rdx,%rax
    2960:	75 ee                	jne    2950 <_ZN3nb220nb__run_ingress_stepEPvi+0x70>
    2962:	66 0f 6f c8          	movdqa %xmm0,%xmm1
    2966:	49 89 fa             	mov    %rdi,%r10
    2969:	66 0f 73 d9 08       	psrldq $0x8,%xmm1
    296e:	49 83 e2 f8          	and    $0xfffffffffffffff8,%r10
    2972:	66 0f fd c1          	paddw  %xmm1,%xmm0
    2976:	4b 8d 14 51          	lea    (%r9,%r10,2),%rdx
    297a:	66 0f 6f c8          	movdqa %xmm0,%xmm1
    297e:	66 0f 73 d9 04       	psrldq $0x4,%xmm1
    2983:	66 0f fd c1          	paddw  %xmm1,%xmm0
    2987:	66 0f 6f c8          	movdqa %xmm0,%xmm1
    298b:	66 0f 73 d9 02       	psrldq $0x2,%xmm1
    2990:	66 0f fd c1          	paddw  %xmm1,%xmm0
    2994:	66 0f c5 c0 00       	pextrw $0x0,%xmm0,%eax
    2999:	49 39 fa             	cmp    %rdi,%r10
    299c:	74 51                	je     29ef <_ZN3nb220nb__run_ingress_stepEPvi+0x10f>
    299e:	48 8d 7a 02          	lea    0x2(%rdx),%rdi
    29a2:	66 03 02             	add    (%rdx),%ax
    29a5:	48 39 fe             	cmp    %rdi,%rsi
    29a8:	76 45                	jbe    29ef <_ZN3nb220nb__run_ingress_stepEPvi+0x10f>
    29aa:	48 8d 7a 04          	lea    0x4(%rdx),%rdi
    29ae:	66 03 42 02          	add    0x2(%rdx),%ax
    29b2:	48 39 fe             	cmp    %rdi,%rsi
    29b5:	76 38                	jbe    29ef <_ZN3nb220nb__run_ingress_stepEPvi+0x10f>
    29b7:	48 8d 7a 06          	lea    0x6(%rdx),%rdi
    29bb:	66 03 42 04          	add    0x4(%rdx),%ax
    29bf:	48 39 fe             	cmp    %rdi,%rsi
    29c2:	76 2b                	jbe    29ef <_ZN3nb220nb__run_ingress_stepEPvi+0x10f>
    29c4:	48 8d 7a 08          	lea    0x8(%rdx),%rdi
    29c8:	66 03 42 06          	add    0x6(%rdx),%ax
    29cc:	48 39 fe             	cmp    %rdi,%rsi
    29cf:	76 1e                	jbe    29ef <_ZN3nb220nb__run_ingress_stepEPvi+0x10f>
    29d1:	48 8d 7a 0a          	lea    0xa(%rdx),%rdi
    29d5:	66 03 42 08          	add    0x8(%rdx),%ax
    29d9:	48 39 fe             	cmp    %rdi,%rsi
    29dc:	76 11                	jbe    29ef <_ZN3nb220nb__run_ingress_stepEPvi+0x10f>
    29de:	48 8d 7a 0c          	lea    0xc(%rdx),%rdi
    29e2:	66 03 42 0a          	add    0xa(%rdx),%ax
    29e6:	48 39 fe             	cmp    %rdi,%rsi
    29e9:	76 04                	jbe    29ef <_ZN3nb220nb__run_ingress_stepEPvi+0x10f>
    29eb:	66 03 42 0c          	add    0xc(%rdx),%ax
    29ef:	66 44 89 41 20       	mov    %r8w,0x20(%rcx)
    29f4:	66 41 39 c0          	cmp    %ax,%r8w
    29f8:	74 06                	je     2a00 <_ZN3nb220nb__run_ingress_stepEPvi+0x120>
    29fa:	c3                   	ret    
    29fb:	0f 1f 44 00 00       	nopl   0x0(%rax,%rax,1)
    2a00:	48 8d 05 51 66 00 00 	lea    0x6651(%rip),%rax        # 9058 <_ZN3nb214nb__my_host_idE>
    2a07:	41 54                	push   %r12
    2a09:	55                   	push   %rbp
    2a0a:	53                   	push   %rbx
    2a0b:	8b 18                	mov    (%rax),%ebx
    2a0d:	39 59 0c             	cmp    %ebx,0xc(%rcx)
    2a10:	74 0e                	je     2a20 <_ZN3nb220nb__run_ingress_stepEPvi+0x140>
    2a12:	5b                   	pop    %rbx
    2a13:	5d                   	pop    %rbp
    2a14:	41 5c                	pop    %r12
    2a16:	c3                   	ret    
    2a17:	66 0f 1f 84 00 00 00 	nopw   0x0(%rax,%rax,1)
    2a1e:	00 00 
    2a20:	0f b7 40 04          	movzwl 0x4(%rax),%eax
    2a24:	66 41 39 41 04       	cmp    %ax,0x4(%r9)
    2a29:	75 e7                	jne    2a12 <_ZN3nb220nb__run_ingress_stepEPvi+0x132>
    2a2b:	48 8d 05 1e 66 00 00 	lea    0x661e(%rip),%rax        # 9050 <_ZN3nb213nb__net_stateE>
    2a32:	48 63 59 26          	movslq 0x26(%rcx),%rbx
    2a36:	4c 8d 61 12          	lea    0x12(%rcx),%r12
    2a3a:	4c 63 49 22          	movslq 0x22(%rcx),%r9
    2a3e:	48 8b 10             	mov    (%rax),%rdx
    2a41:	49 89 db             	mov    %rbx,%r11
    2a44:	4c 63 82 00 2c 00 00 	movslq 0x2c00(%rdx),%r8
    2a4b:	45 85 c0             	test   %r8d,%r8d
    2a4e:	7e c2                	jle    2a12 <_ZN3nb220nb__run_ingress_stepEPvi+0x132>
    2a50:	48 8d aa 00 20 00 00 	lea    0x2000(%rdx),%rbp
    2a57:	31 c0                	xor    %eax,%eax
    2a59:	48 89 ee             	mov    %rbp,%rsi
    2a5c:	8b bc 82 00 10 00 00 	mov    0x1000(%rdx,%rax,4),%edi
    2a63:	4c 63 d0             	movslq %eax,%r10
    2a66:	4c 39 cf             	cmp    %r9,%rdi
    2a69:	75 15                	jne    2a80 <_ZN3nb220nb__run_ingress_stepEPvi+0x1a0>
    2a6b:	8b bc 82 00 18 00 00 	mov    0x1800(%rdx,%rax,4),%edi
    2a72:	48 39 df             	cmp    %rbx,%rdi
    2a75:	75 09                	jne    2a80 <_ZN3nb220nb__run_ingress_stepEPvi+0x1a0>
    2a77:	41 8b 3c 24          	mov    (%r12),%edi
    2a7b:	39 3e                	cmp    %edi,(%rsi)
    2a7d:	74 62                	je     2ae1 <_ZN3nb220nb__run_ingress_stepEPvi+0x201>
    2a7f:	90                   	nop
    2a80:	48 83 c0 01          	add    $0x1,%rax
    2a84:	48 83 c6 06          	add    $0x6,%rsi
    2a88:	4c 39 c0             	cmp    %r8,%rax
    2a8b:	75 cf                	jne    2a5c <_ZN3nb220nb__run_ingress_stepEPvi+0x17c>
    2a8d:	31 c0                	xor    %eax,%eax
    2a8f:	8b b4 82 00 10 00 00 	mov    0x1000(%rdx,%rax,4),%esi
    2a96:	48 63 f8             	movslq %eax,%rdi
    2a99:	4c 39 ce             	cmp    %r9,%rsi
    2a9c:	75 1d                	jne    2abb <_ZN3nb220nb__run_ingress_stepEPvi+0x1db>
    2a9e:	8b b4 82 00 18 00 00 	mov    0x1800(%rdx,%rax,4),%esi
    2aa5:	85 f6                	test   %esi,%esi
    2aa7:	75 12                	jne    2abb <_ZN3nb220nb__run_ingress_stepEPvi+0x1db>
    2aa9:	48 8d 35 98 65 00 00 	lea    0x6598(%rip),%rsi        # 9048 <_ZN3nb228nb__wildcard_host_identifierE>
    2ab0:	8b 1e                	mov    (%rsi),%ebx
    2ab2:	39 5d 00             	cmp    %ebx,0x0(%rbp)
    2ab5:	0f 84 f1 00 00 00    	je     2bac <_ZN3nb220nb__run_ingress_stepEPvi+0x2cc>
    2abb:	48 83 c0 01          	add    $0x1,%rax
    2abf:	48 83 c5 06          	add    $0x6,%rbp
    2ac3:	4c 39 c0             	cmp    %r8,%rax
    2ac6:	75 c7                	jne    2a8f <_ZN3nb220nb__run_ingress_stepEPvi+0x1af>
    2ac8:	e9 45 ff ff ff       	jmp    2a12 <_ZN3nb220nb__run_ingress_stepEPvi+0x132>
    2acd:	0f 1f 00             	nopl   (%rax)
    2ad0:	31 c0                	xor    %eax,%eax
    2ad2:	e9 18 ff ff ff       	jmp    29ef <_ZN3nb220nb__run_ingress_stepEPvi+0x10f>
    2ad7:	4c 89 ca             	mov    %r9,%rdx
    2ada:	31 c0                	xor    %eax,%eax
    2adc:	e9 bd fe ff ff       	jmp    299e <_ZN3nb220nb__run_ingress_stepEPvi+0xbe>
    2ae1:	41 0f b7 7c 24 04    	movzwl 0x4(%r12),%edi
    2ae7:	66 39 7e 04          	cmp    %di,0x4(%rsi)
    2aeb:	75 93                	jne    2a80 <_ZN3nb220nb__run_ingress_stepEPvi+0x1a0>
    2aed:	4a 8b 1c d2          	mov    (%rdx,%r10,8),%rbx
    2af1:	48 85 db             	test   %rbx,%rbx
    2af4:	74 97                	je     2a8d <_ZN3nb220nb__run_ingress_stepEPvi+0x1ad>
    2af6:	8b 83 18 01 00 00    	mov    0x118(%rbx),%eax
    2afc:	8b 69 2a             	mov    0x2a(%rcx),%ebp
    2aff:	48 89 59 04          	mov    %rbx,0x4(%rcx)
    2b03:	85 c0                	test   %eax,%eax
    2b05:	74 28                	je     2b2f <_ZN3nb220nb__run_ingress_stepEPvi+0x24f>
    2b07:	83 c0 01             	add    $0x1,%eax
    2b0a:	39 c5                	cmp    %eax,%ebp
    2b0c:	74 21                	je     2b2f <_ZN3nb220nb__run_ingress_stepEPvi+0x24f>
    2b0e:	89 e8                	mov    %ebp,%eax
    2b10:	83 e0 1f             	and    $0x1f,%eax
    2b13:	48 89 4c c3 10       	mov    %rcx,0x10(%rbx,%rax,8)
    2b18:	3b ab 24 01 00 00    	cmp    0x124(%rbx),%ebp
    2b1e:	0f 86 ee fe ff ff    	jbe    2a12 <_ZN3nb220nb__run_ingress_stepEPvi+0x132>
    2b24:	89 ab 24 01 00 00    	mov    %ebp,0x124(%rbx)
    2b2a:	e9 e3 fe ff ff       	jmp    2a12 <_ZN3nb220nb__run_ingress_stepEPvi+0x132>
    2b2f:	8b 41 1c             	mov    0x1c(%rcx),%eax
    2b32:	48 8b bb 10 01 00 00 	mov    0x110(%rbx),%rdi
    2b39:	48 8d 71 2e          	lea    0x2e(%rcx),%rsi
    2b3d:	8d 50 de             	lea    -0x22(%rax),%edx
    2b40:	e8 5b ec ff ff       	call   17a0 <_ZN3nb221nb__insert_data_queueEP12data_queue_tPci>
    2b45:	89 ab 18 01 00 00    	mov    %ebp,0x118(%rbx)
    2b4b:	83 c5 01             	add    $0x1,%ebp
    2b4e:	39 ab 24 01 00 00    	cmp    %ebp,0x124(%rbx)
    2b54:	73 3d                	jae    2b93 <_ZN3nb220nb__run_ingress_stepEPvi+0x2b3>
    2b56:	e9 b7 fe ff ff       	jmp    2a12 <_ZN3nb220nb__run_ingress_stepEPvi+0x132>
    2b5b:	0f 1f 44 00 00       	nopl   0x0(%rax,%rax,1)
    2b60:	8b 46 1c             	mov    0x1c(%rsi),%eax
    2b63:	48 8b bb 10 01 00 00 	mov    0x110(%rbx),%rdi
    2b6a:	48 83 c6 2e          	add    $0x2e,%rsi
    2b6e:	8d 50 de             	lea    -0x22(%rax),%edx
    2b71:	e8 2a ec ff ff       	call   17a0 <_ZN3nb221nb__insert_data_queueEP12data_queue_tPci>
    2b76:	89 ab 18 01 00 00    	mov    %ebp,0x118(%rbx)
    2b7c:	83 c5 01             	add    $0x1,%ebp
    2b7f:	4a c7 04 e3 00 00 00 	movq   $0x0,(%rbx,%r12,8)
    2b86:	00 
    2b87:	39 ab 24 01 00 00    	cmp    %ebp,0x124(%rbx)
    2b8d:	0f 82 7f fe ff ff    	jb     2a12 <_ZN3nb220nb__run_ingress_stepEPvi+0x132>
    2b93:	41 89 ec             	mov    %ebp,%r12d
    2b96:	41 83 e4 1f          	and    $0x1f,%r12d
    2b9a:	49 83 c4 02          	add    $0x2,%r12
    2b9e:	4a 8b 34 e3          	mov    (%rbx,%r12,8),%rsi
    2ba2:	48 85 f6             	test   %rsi,%rsi
    2ba5:	75 b9                	jne    2b60 <_ZN3nb220nb__run_ingress_stepEPvi+0x280>
    2ba7:	e9 66 fe ff ff       	jmp    2a12 <_ZN3nb220nb__run_ingress_stepEPvi+0x132>
    2bac:	0f b7 5e 04          	movzwl 0x4(%rsi),%ebx
    2bb0:	66 39 5d 04          	cmp    %bx,0x4(%rbp)
    2bb4:	0f 85 01 ff ff ff    	jne    2abb <_ZN3nb220nb__run_ingress_stepEPvi+0x1db>
    2bba:	48 8b 04 fa          	mov    (%rdx,%rdi,8),%rax
    2bbe:	48 85 c0             	test   %rax,%rax
    2bc1:	0f 84 4b fe ff ff    	je     2a12 <_ZN3nb220nb__run_ingress_stepEPvi+0x132>
    2bc7:	48 8b 38             	mov    (%rax),%rdi
    2bca:	5b                   	pop    %rbx
    2bcb:	4c 89 e2             	mov    %r12,%rdx
    2bce:	44 89 de             	mov    %r11d,%esi
    2bd1:	5d                   	pop    %rbp
    2bd2:	41 5c                	pop    %r12
    2bd4:	e9 27 ec ff ff       	jmp    1800 <_ZN3nb223nb__insert_accept_queueEP14accept_queue_tjPcPv>
    2bd9:	0f 1f 80 00 00 00 00 	nopl   0x0(%rax)

0000000000002be0 <_ZN3nb115nb__alloc_timerEv>:
    2be0:	f3 0f 1e fa          	endbr64 
    2be4:	48 8d 15 35 43 01 00 	lea    0x14335(%rip),%rdx        # 16f20 <_ZN3nb119nb__timer_free_listE>
    2beb:	48 8b 02             	mov    (%rdx),%rax
    2bee:	48 85 c0             	test   %rax,%rax
    2bf1:	74 07                	je     2bfa <_ZN3nb115nb__alloc_timerEv+0x1a>
    2bf3:	48 8b 48 10          	mov    0x10(%rax),%rcx
    2bf7:	48 89 0a             	mov    %rcx,(%rdx)
    2bfa:	c3                   	ret    
    2bfb:	0f 1f 44 00 00       	nopl   0x0(%rax,%rax,1)

0000000000002c00 <_ZN3nb116nb__return_timerEPNS_13nb__timer_objE>:
    2c00:	f3 0f 1e fa          	endbr64 
    2c04:	48 8d 05 15 43 01 00 	lea    0x14315(%rip),%rax        # 16f20 <_ZN3nb119nb__timer_free_listE>
    2c0b:	48 8b 10             	mov    (%rax),%rdx
    2c0e:	48 89 38             	mov    %rdi,(%rax)
    2c11:	48 89 57 10          	mov    %rdx,0x10(%rdi)
    2c15:	c3                   	ret    
    2c16:	66 2e 0f 1f 84 00 00 	cs nopw 0x0(%rax,%rax,1)
    2c1d:	00 00 00 

0000000000002c20 <_ZN3nb116nb__insert_timerEPNS_13nb__timer_objEyPFvS1_PvyES2_>:
    2c20:	f3 0f 1e fa          	endbr64 
    2c24:	48 89 17             	mov    %rdx,(%rdi)
    2c27:	48 89 f2             	mov    %rsi,%rdx
    2c2a:	66 48 0f 6e c1       	movq   %rcx,%xmm0
    2c2f:	49 b8 cf f7 53 e3 a5 	movabs $0x20c49ba5e353f7cf,%r8
    2c36:	9b c4 20 
    2c39:	48 c1 ea 03          	shr    $0x3,%rdx
    2c3d:	48 89 77 20          	mov    %rsi,0x20(%rdi)
    2c41:	48 89 d0             	mov    %rdx,%rax
    2c44:	49 f7 e0             	mul    %r8
    2c47:	48 c1 ea 04          	shr    $0x4,%rdx
    2c4b:	48 69 d2 e8 03 00 00 	imul   $0x3e8,%rdx,%rdx
    2c52:	48 29 d6             	sub    %rdx,%rsi
    2c55:	48 8d 15 84 23 01 00 	lea    0x12384(%rip),%rdx        # 14fe0 <_ZN3nb115nb__timer_slotsE>
    2c5c:	48 63 f6             	movslq %esi,%rsi
    2c5f:	48 8b 04 f2          	mov    (%rdx,%rsi,8),%rax
    2c63:	48 c7 47 18 00 00 00 	movq   $0x0,0x18(%rdi)
    2c6a:	00 
    2c6b:	66 48 0f 6e c8       	movq   %rax,%xmm1
    2c70:	66 0f 6c c1          	punpcklqdq %xmm1,%xmm0
    2c74:	0f 11 47 08          	movups %xmm0,0x8(%rdi)
    2c78:	48 85 c0             	test   %rax,%rax
    2c7b:	74 04                	je     2c81 <_ZN3nb116nb__insert_timerEPNS_13nb__timer_objEyPFvS1_PvyES2_+0x61>
    2c7d:	48 89 78 18          	mov    %rdi,0x18(%rax)
    2c81:	48 89 3c f2          	mov    %rdi,(%rdx,%rsi,8)
    2c85:	c3                   	ret    
    2c86:	66 2e 0f 1f 84 00 00 	cs nopw 0x0(%rax,%rax,1)
    2c8d:	00 00 00 

0000000000002c90 <_ZN3nb116nb__remove_timerEPNS_13nb__timer_objE>:
    2c90:	f3 0f 1e fa          	endbr64 
    2c94:	48 89 f9             	mov    %rdi,%rcx
    2c97:	48 8b 7f 10          	mov    0x10(%rdi),%rdi
    2c9b:	48 85 ff             	test   %rdi,%rdi
    2c9e:	74 08                	je     2ca8 <_ZN3nb116nb__remove_timerEPNS_13nb__timer_objE+0x18>
    2ca0:	48 8b 41 18          	mov    0x18(%rcx),%rax
    2ca4:	48 89 47 18          	mov    %rax,0x18(%rdi)
    2ca8:	48 8b 41 18          	mov    0x18(%rcx),%rax
    2cac:	48 85 c0             	test   %rax,%rax
    2caf:	74 1f                	je     2cd0 <_ZN3nb116nb__remove_timerEPNS_13nb__timer_objE+0x40>
    2cb1:	48 89 78 10          	mov    %rdi,0x10(%rax)
    2cb5:	66 0f ef c0          	pxor   %xmm0,%xmm0
    2cb9:	48 c7 41 20 ff ff ff 	movq   $0xffffffffffffffff,0x20(%rcx)
    2cc0:	ff 
    2cc1:	0f 11 41 10          	movups %xmm0,0x10(%rcx)
    2cc5:	c3                   	ret    
    2cc6:	66 2e 0f 1f 84 00 00 	cs nopw 0x0(%rax,%rax,1)
    2ccd:	00 00 00 
    2cd0:	49 b8 cf f7 53 e3 a5 	movabs $0x20c49ba5e353f7cf,%r8
    2cd7:	9b c4 20 
    2cda:	48 8b 71 20          	mov    0x20(%rcx),%rsi
    2cde:	48 89 f2             	mov    %rsi,%rdx
    2ce1:	48 c1 ea 03          	shr    $0x3,%rdx
    2ce5:	48 89 d0             	mov    %rdx,%rax
    2ce8:	49 f7 e0             	mul    %r8
    2ceb:	48 8d 05 ee 22 01 00 	lea    0x122ee(%rip),%rax        # 14fe0 <_ZN3nb115nb__timer_slotsE>
    2cf2:	48 c1 ea 04          	shr    $0x4,%rdx
    2cf6:	48 69 d2 e8 03 00 00 	imul   $0x3e8,%rdx,%rdx
    2cfd:	48 29 d6             	sub    %rdx,%rsi
    2d00:	48 63 f6             	movslq %esi,%rsi
    2d03:	48 89 3c f0          	mov    %rdi,(%rax,%rsi,8)
    2d07:	eb ac                	jmp    2cb5 <_ZN3nb116nb__remove_timerEPNS_13nb__timer_objE+0x25>
    2d09:	0f 1f 80 00 00 00 00 	nopl   0x0(%rax)

0000000000002d10 <_ZN3nb115nb__init_timersEv>:
    2d10:	f3 0f 1e fa          	endbr64 
    2d14:	48 83 ec 08          	sub    $0x8,%rsp
    2d18:	66 0f ef e4          	pxor   %xmm4,%xmm4
    2d1c:	66 0f 6f 15 1c 33 00 	movdqa 0x331c(%rip),%xmm2        # 6040 <_IO_stdin_used+0x40>
    2d23:	00 
    2d24:	48 8d 0d 15 42 01 00 	lea    0x14215(%rip),%rcx        # 16f40 <_ZN3nb120nb__allocated_timersE>
    2d2b:	66 0f 6f ec          	movdqa %xmm4,%xmm5
    2d2f:	48 8d 05 ea 41 01 00 	lea    0x141ea(%rip),%rax        # 16f20 <_ZN3nb119nb__timer_free_listE>
    2d36:	66 0f 6f 1d d2 32 00 	movdqa 0x32d2(%rip),%xmm3        # 6010 <_IO_stdin_used+0x10>
    2d3d:	00 
    2d3e:	66 0f 66 ea          	pcmpgtd %xmm2,%xmm5
    2d42:	66 48 0f 6e f1       	movq   %rcx,%xmm6
    2d47:	66 44 0f 6f 05 d0 32 	movdqa 0x32d0(%rip),%xmm8        # 6020 <_IO_stdin_used+0x20>
    2d4e:	00 00 
    2d50:	66 0f 6f 3d d8 32 00 	movdqa 0x32d8(%rip),%xmm7        # 6030 <_IO_stdin_used+0x30>
    2d57:	00 
    2d58:	48 89 08             	mov    %rcx,(%rax)
    2d5b:	66 0f 6c f6          	punpcklqdq %xmm6,%xmm6
    2d5f:	48 8d 41 10          	lea    0x10(%rcx),%rax
    2d63:	48 8d 91 70 9f 00 00 	lea    0x9f70(%rcx),%rdx
    2d6a:	66 0f 1f 44 00 00    	nopw   0x0(%rax,%rax,1)
    2d70:	66 0f 6f c3          	movdqa %xmm3,%xmm0
    2d74:	66 44 0f 6f cc       	movdqa %xmm4,%xmm9
    2d79:	66 44 0f 6f d5       	movdqa %xmm5,%xmm10
    2d7e:	48 05 a0 00 00 00    	add    $0xa0,%rax
    2d84:	66 0f fe c7          	paddd  %xmm7,%xmm0
    2d88:	66 41 0f fe d8       	paddd  %xmm8,%xmm3
    2d8d:	66 0f 6f c8          	movdqa %xmm0,%xmm1
    2d91:	66 0f 62 c8          	punpckldq %xmm0,%xmm1
    2d95:	66 0f 6a c0          	punpckhdq %xmm0,%xmm0
    2d99:	66 44 0f 66 c9       	pcmpgtd %xmm1,%xmm9
    2d9e:	66 44 0f f4 d1       	pmuludq %xmm1,%xmm10
    2da3:	66 0f f4 ca          	pmuludq %xmm2,%xmm1
    2da7:	66 44 0f f4 ca       	pmuludq %xmm2,%xmm9
    2dac:	66 45 0f d4 ca       	paddq  %xmm10,%xmm9
    2db1:	66 44 0f 6f d5       	movdqa %xmm5,%xmm10
    2db6:	66 41 0f 73 f1 20    	psllq  $0x20,%xmm9
    2dbc:	66 44 0f f4 d0       	pmuludq %xmm0,%xmm10
    2dc1:	66 41 0f d4 c9       	paddq  %xmm9,%xmm1
    2dc6:	66 44 0f 6f cc       	movdqa %xmm4,%xmm9
    2dcb:	66 44 0f 66 c8       	pcmpgtd %xmm0,%xmm9
    2dd0:	66 0f f4 c2          	pmuludq %xmm2,%xmm0
    2dd4:	66 0f d4 ce          	paddq  %xmm6,%xmm1
    2dd8:	66 0f d6 88 60 ff ff 	movq   %xmm1,-0xa0(%rax)
    2ddf:	ff 
    2de0:	0f 17 48 88          	movhps %xmm1,-0x78(%rax)
    2de4:	66 44 0f f4 ca       	pmuludq %xmm2,%xmm9
    2de9:	66 45 0f d4 ca       	paddq  %xmm10,%xmm9
    2dee:	66 41 0f 73 f1 20    	psllq  $0x20,%xmm9
    2df4:	66 41 0f d4 c1       	paddq  %xmm9,%xmm0
    2df9:	66 0f d4 c6          	paddq  %xmm6,%xmm0
    2dfd:	66 0f d6 40 b0       	movq   %xmm0,-0x50(%rax)
    2e02:	0f 17 40 d8          	movhps %xmm0,-0x28(%rax)
    2e06:	48 39 d0             	cmp    %rdx,%rax
    2e09:	0f 85 61 ff ff ff    	jne    2d70 <_ZN3nb115nb__init_timersEv+0x60>
    2e0f:	48 8d 81 88 9f 00 00 	lea    0x9f88(%rcx),%rax
    2e16:	48 8d 3d c3 21 01 00 	lea    0x121c3(%rip),%rdi        # 14fe0 <_ZN3nb115nb__timer_slotsE>
    2e1d:	48 c7 81 e8 9f 00 00 	movq   $0x0,0x9fe8(%rcx)
    2e24:	00 00 00 00 
    2e28:	48 89 81 70 9f 00 00 	mov    %rax,0x9f70(%rcx)
    2e2f:	48 8d 81 b0 9f 00 00 	lea    0x9fb0(%rcx),%rax
    2e36:	48 89 81 98 9f 00 00 	mov    %rax,0x9f98(%rcx)
    2e3d:	48 8d 81 d8 9f 00 00 	lea    0x9fd8(%rcx),%rax
    2e44:	48 89 81 c0 9f 00 00 	mov    %rax,0x9fc0(%rcx)
    2e4b:	31 c0                	xor    %eax,%eax
    2e4d:	b9 e8 03 00 00       	mov    $0x3e8,%ecx
    2e52:	f3 48 ab             	rep stos %rax,%es:(%rdi)
    2e55:	e8 56 ec ff ff       	call   1ab0 <_Z19nb__get_time_ms_nowv>
    2e5a:	48 89 05 e7 e0 01 00 	mov    %rax,0x1e0e7(%rip)        # 20f48 <_ZN3nb1L22nb__last_timer_checkedE>
    2e61:	48 83 c4 08          	add    $0x8,%rsp
    2e65:	c3                   	ret    
    2e66:	66 2e 0f 1f 84 00 00 	cs nopw 0x0(%rax,%rax,1)
    2e6d:	00 00 00 

0000000000002e70 <_ZN3nb116nb__check_timersEv>:
    2e70:	f3 0f 1e fa          	endbr64 
    2e74:	41 56                	push   %r14
    2e76:	41 55                	push   %r13
    2e78:	41 54                	push   %r12
    2e7a:	55                   	push   %rbp
    2e7b:	53                   	push   %rbx
    2e7c:	e8 2f ec ff ff       	call   1ab0 <_Z19nb__get_time_ms_nowv>
    2e81:	48 89 c5             	mov    %rax,%rbp
    2e84:	48 8b 05 bd e0 01 00 	mov    0x1e0bd(%rip),%rax        # 20f48 <_ZN3nb1L22nb__last_timer_checkedE>
    2e8b:	4c 8d 70 01          	lea    0x1(%rax),%r14
    2e8f:	4c 39 f5             	cmp    %r14,%rbp
    2e92:	0f 82 91 00 00 00    	jb     2f29 <_ZN3nb116nb__check_timersEv+0xb9>
    2e98:	4c 8d 2d 41 21 01 00 	lea    0x12141(%rip),%r13        # 14fe0 <_ZN3nb115nb__timer_slotsE>
    2e9f:	49 bc cf f7 53 e3 a5 	movabs $0x20c49ba5e353f7cf,%r12
    2ea6:	9b c4 20 
    2ea9:	0f 1f 80 00 00 00 00 	nopl   0x0(%rax)
    2eb0:	4c 89 f2             	mov    %r14,%rdx
    2eb3:	48 c1 ea 03          	shr    $0x3,%rdx
    2eb7:	48 89 d0             	mov    %rdx,%rax
    2eba:	49 f7 e4             	mul    %r12
    2ebd:	4c 89 f0             	mov    %r14,%rax
    2ec0:	48 c1 ea 04          	shr    $0x4,%rdx
    2ec4:	48 69 d2 e8 03 00 00 	imul   $0x3e8,%rdx,%rdx
    2ecb:	48 29 d0             	sub    %rdx,%rax
    2ece:	48 63 d8             	movslq %eax,%rbx
    2ed1:	48 98                	cltq   
    2ed3:	49 8b 44 c5 00       	mov    0x0(%r13,%rax,8),%rax
    2ed8:	48 85 c0             	test   %rax,%rax
    2edb:	75 26                	jne    2f03 <_ZN3nb116nb__check_timersEv+0x93>
    2edd:	eb 41                	jmp    2f20 <_ZN3nb116nb__check_timersEv+0xb0>
    2edf:	90                   	nop
    2ee0:	48 c7 42 18 00 00 00 	movq   $0x0,0x18(%rdx)
    2ee7:	00 
    2ee8:	49 89 54 dd 00       	mov    %rdx,0x0(%r13,%rbx,8)
    2eed:	48 8b 70 08          	mov    0x8(%rax),%rsi
    2ef1:	48 89 c7             	mov    %rax,%rdi
    2ef4:	4c 89 f2             	mov    %r14,%rdx
    2ef7:	ff 10                	call   *(%rax)
    2ef9:	49 8b 44 dd 00       	mov    0x0(%r13,%rbx,8),%rax
    2efe:	48 85 c0             	test   %rax,%rax
    2f01:	74 1d                	je     2f20 <_ZN3nb116nb__check_timersEv+0xb0>
    2f03:	48 8b 50 10          	mov    0x10(%rax),%rdx
    2f07:	48 85 d2             	test   %rdx,%rdx
    2f0a:	75 d4                	jne    2ee0 <_ZN3nb116nb__check_timersEv+0x70>
    2f0c:	49 c7 44 dd 00 00 00 	movq   $0x0,0x0(%r13,%rbx,8)
    2f13:	00 00 
    2f15:	eb d6                	jmp    2eed <_ZN3nb116nb__check_timersEv+0x7d>
    2f17:	66 0f 1f 84 00 00 00 	nopw   0x0(%rax,%rax,1)
    2f1e:	00 00 
    2f20:	49 83 c6 01          	add    $0x1,%r14
    2f24:	4c 39 f5             	cmp    %r14,%rbp
    2f27:	73 87                	jae    2eb0 <_ZN3nb116nb__check_timersEv+0x40>
    2f29:	5b                   	pop    %rbx
    2f2a:	48 89 2d 17 e0 01 00 	mov    %rbp,0x1e017(%rip)        # 20f48 <_ZN3nb1L22nb__last_timer_checkedE>
    2f31:	5d                   	pop    %rbp
    2f32:	41 5c                	pop    %r12
    2f34:	41 5d                	pop    %r13
    2f36:	41 5e                	pop    %r14
    2f38:	c3                   	ret    
    2f39:	0f 1f 80 00 00 00 00 	nopl   0x0(%rax)

0000000000002f40 <_ZN3nb215nb__alloc_timerEv>:
    2f40:	f3 0f 1e fa          	endbr64 
    2f44:	48 8d 15 75 80 00 00 	lea    0x8075(%rip),%rdx        # afc0 <_ZN3nb219nb__timer_free_listE>
    2f4b:	48 8b 02             	mov    (%rdx),%rax
    2f4e:	48 85 c0             	test   %rax,%rax
    2f51:	74 07                	je     2f5a <_ZN3nb215nb__alloc_timerEv+0x1a>
    2f53:	48 8b 48 10          	mov    0x10(%rax),%rcx
    2f57:	48 89 0a             	mov    %rcx,(%rdx)
    2f5a:	c3                   	ret    
    2f5b:	0f 1f 44 00 00       	nopl   0x0(%rax,%rax,1)

0000000000002f60 <_ZN3nb216nb__return_timerEPNS_13nb__timer_objE>:
    2f60:	f3 0f 1e fa          	endbr64 
    2f64:	48 8d 05 55 80 00 00 	lea    0x8055(%rip),%rax        # afc0 <_ZN3nb219nb__timer_free_listE>
    2f6b:	48 8b 10             	mov    (%rax),%rdx
    2f6e:	48 89 38             	mov    %rdi,(%rax)
    2f71:	48 89 57 10          	mov    %rdx,0x10(%rdi)
    2f75:	c3                   	ret    
    2f76:	66 2e 0f 1f 84 00 00 	cs nopw 0x0(%rax,%rax,1)
    2f7d:	00 00 00 

0000000000002f80 <_ZN3nb216nb__insert_timerEPNS_13nb__timer_objEyPFvS1_PvyES2_>:
    2f80:	f3 0f 1e fa          	endbr64 
    2f84:	48 89 17             	mov    %rdx,(%rdi)
    2f87:	48 89 f2             	mov    %rsi,%rdx
    2f8a:	66 48 0f 6e c1       	movq   %rcx,%xmm0
    2f8f:	49 b8 cf f7 53 e3 a5 	movabs $0x20c49ba5e353f7cf,%r8
    2f96:	9b c4 20 
    2f99:	48 c1 ea 03          	shr    $0x3,%rdx
    2f9d:	48 89 77 20          	mov    %rsi,0x20(%rdi)
    2fa1:	48 89 d0             	mov    %rdx,%rax
    2fa4:	49 f7 e0             	mul    %r8
    2fa7:	48 c1 ea 04          	shr    $0x4,%rdx
    2fab:	48 69 d2 e8 03 00 00 	imul   $0x3e8,%rdx,%rdx
    2fb2:	48 29 d6             	sub    %rdx,%rsi
    2fb5:	48 8d 15 c4 60 00 00 	lea    0x60c4(%rip),%rdx        # 9080 <_ZN3nb215nb__timer_slotsE>
    2fbc:	48 63 f6             	movslq %esi,%rsi
    2fbf:	48 8b 04 f2          	mov    (%rdx,%rsi,8),%rax
    2fc3:	48 c7 47 18 00 00 00 	movq   $0x0,0x18(%rdi)
    2fca:	00 
    2fcb:	66 48 0f 6e c8       	movq   %rax,%xmm1
    2fd0:	66 0f 6c c1          	punpcklqdq %xmm1,%xmm0
    2fd4:	0f 11 47 08          	movups %xmm0,0x8(%rdi)
    2fd8:	48 85 c0             	test   %rax,%rax
    2fdb:	74 04                	je     2fe1 <_ZN3nb216nb__insert_timerEPNS_13nb__timer_objEyPFvS1_PvyES2_+0x61>
    2fdd:	48 89 78 18          	mov    %rdi,0x18(%rax)
    2fe1:	48 89 3c f2          	mov    %rdi,(%rdx,%rsi,8)
    2fe5:	c3                   	ret    
    2fe6:	66 2e 0f 1f 84 00 00 	cs nopw 0x0(%rax,%rax,1)
    2fed:	00 00 00 

0000000000002ff0 <_ZN3nb216nb__remove_timerEPNS_13nb__timer_objE>:
    2ff0:	f3 0f 1e fa          	endbr64 
    2ff4:	48 89 f9             	mov    %rdi,%rcx
    2ff7:	48 8b 7f 10          	mov    0x10(%rdi),%rdi
    2ffb:	48 85 ff             	test   %rdi,%rdi
    2ffe:	74 08                	je     3008 <_ZN3nb216nb__remove_timerEPNS_13nb__timer_objE+0x18>
    3000:	48 8b 41 18          	mov    0x18(%rcx),%rax
    3004:	48 89 47 18          	mov    %rax,0x18(%rdi)
    3008:	48 8b 41 18          	mov    0x18(%rcx),%rax
    300c:	48 85 c0             	test   %rax,%rax
    300f:	74 1f                	je     3030 <_ZN3nb216nb__remove_timerEPNS_13nb__timer_objE+0x40>
    3011:	48 89 78 10          	mov    %rdi,0x10(%rax)
    3015:	66 0f ef c0          	pxor   %xmm0,%xmm0
    3019:	48 c7 41 20 ff ff ff 	movq   $0xffffffffffffffff,0x20(%rcx)
    3020:	ff 
    3021:	0f 11 41 10          	movups %xmm0,0x10(%rcx)
    3025:	c3                   	ret    
    3026:	66 2e 0f 1f 84 00 00 	cs nopw 0x0(%rax,%rax,1)
    302d:	00 00 00 
    3030:	49 b8 cf f7 53 e3 a5 	movabs $0x20c49ba5e353f7cf,%r8
    3037:	9b c4 20 
    303a:	48 8b 71 20          	mov    0x20(%rcx),%rsi
    303e:	48 89 f2             	mov    %rsi,%rdx
    3041:	48 c1 ea 03          	shr    $0x3,%rdx
    3045:	48 89 d0             	mov    %rdx,%rax
    3048:	49 f7 e0             	mul    %r8
    304b:	48 8d 05 2e 60 00 00 	lea    0x602e(%rip),%rax        # 9080 <_ZN3nb215nb__timer_slotsE>
    3052:	48 c1 ea 04          	shr    $0x4,%rdx
    3056:	48 69 d2 e8 03 00 00 	imul   $0x3e8,%rdx,%rdx
    305d:	48 29 d6             	sub    %rdx,%rsi
    3060:	48 63 f6             	movslq %esi,%rsi
    3063:	48 89 3c f0          	mov    %rdi,(%rax,%rsi,8)
    3067:	eb ac                	jmp    3015 <_ZN3nb216nb__remove_timerEPNS_13nb__timer_objE+0x25>
    3069:	0f 1f 80 00 00 00 00 	nopl   0x0(%rax)

0000000000003070 <_ZN3nb215nb__init_timersEv>:
    3070:	f3 0f 1e fa          	endbr64 
    3074:	48 83 ec 08          	sub    $0x8,%rsp
    3078:	66 0f ef e4          	pxor   %xmm4,%xmm4
    307c:	66 0f 6f 15 bc 2f 00 	movdqa 0x2fbc(%rip),%xmm2        # 6040 <_IO_stdin_used+0x40>
    3083:	00 
    3084:	48 8d 0d 55 7f 00 00 	lea    0x7f55(%rip),%rcx        # afe0 <_ZN3nb220nb__allocated_timersE>
    308b:	66 0f 6f ec          	movdqa %xmm4,%xmm5
    308f:	48 8d 05 2a 7f 00 00 	lea    0x7f2a(%rip),%rax        # afc0 <_ZN3nb219nb__timer_free_listE>
    3096:	66 0f 6f 1d 72 2f 00 	movdqa 0x2f72(%rip),%xmm3        # 6010 <_IO_stdin_used+0x10>
    309d:	00 
    309e:	66 0f 66 ea          	pcmpgtd %xmm2,%xmm5
    30a2:	66 48 0f 6e f1       	movq   %rcx,%xmm6
    30a7:	66 44 0f 6f 05 70 2f 	movdqa 0x2f70(%rip),%xmm8        # 6020 <_IO_stdin_used+0x20>
    30ae:	00 00 
    30b0:	66 0f 6f 3d 78 2f 00 	movdqa 0x2f78(%rip),%xmm7        # 6030 <_IO_stdin_used+0x30>
    30b7:	00 
    30b8:	48 89 08             	mov    %rcx,(%rax)
    30bb:	66 0f 6c f6          	punpcklqdq %xmm6,%xmm6
    30bf:	48 8d 41 10          	lea    0x10(%rcx),%rax
    30c3:	48 8d 91 70 9f 00 00 	lea    0x9f70(%rcx),%rdx
    30ca:	66 0f 1f 44 00 00    	nopw   0x0(%rax,%rax,1)
    30d0:	66 0f 6f c3          	movdqa %xmm3,%xmm0
    30d4:	66 44 0f 6f cc       	movdqa %xmm4,%xmm9
    30d9:	66 44 0f 6f d5       	movdqa %xmm5,%xmm10
    30de:	48 05 a0 00 00 00    	add    $0xa0,%rax
    30e4:	66 0f fe c7          	paddd  %xmm7,%xmm0
    30e8:	66 41 0f fe d8       	paddd  %xmm8,%xmm3
    30ed:	66 0f 6f c8          	movdqa %xmm0,%xmm1
    30f1:	66 0f 62 c8          	punpckldq %xmm0,%xmm1
    30f5:	66 0f 6a c0          	punpckhdq %xmm0,%xmm0
    30f9:	66 44 0f 66 c9       	pcmpgtd %xmm1,%xmm9
    30fe:	66 44 0f f4 d1       	pmuludq %xmm1,%xmm10
    3103:	66 0f f4 ca          	pmuludq %xmm2,%xmm1
    3107:	66 44 0f f4 ca       	pmuludq %xmm2,%xmm9
    310c:	66 45 0f d4 ca       	paddq  %xmm10,%xmm9
    3111:	66 44 0f 6f d5       	movdqa %xmm5,%xmm10
    3116:	66 41 0f 73 f1 20    	psllq  $0x20,%xmm9
    311c:	66 44 0f f4 d0       	pmuludq %xmm0,%xmm10
    3121:	66 41 0f d4 c9       	paddq  %xmm9,%xmm1
    3126:	66 44 0f 6f cc       	movdqa %xmm4,%xmm9
    312b:	66 44 0f 66 c8       	pcmpgtd %xmm0,%xmm9
    3130:	66 0f f4 c2          	pmuludq %xmm2,%xmm0
    3134:	66 0f d4 ce          	paddq  %xmm6,%xmm1
    3138:	66 0f d6 88 60 ff ff 	movq   %xmm1,-0xa0(%rax)
    313f:	ff 
    3140:	0f 17 48 88          	movhps %xmm1,-0x78(%rax)
    3144:	66 44 0f f4 ca       	pmuludq %xmm2,%xmm9
    3149:	66 45 0f d4 ca       	paddq  %xmm10,%xmm9
    314e:	66 41 0f 73 f1 20    	psllq  $0x20,%xmm9
    3154:	66 41 0f d4 c1       	paddq  %xmm9,%xmm0
    3159:	66 0f d4 c6          	paddq  %xmm6,%xmm0
    315d:	66 0f d6 40 b0       	movq   %xmm0,-0x50(%rax)
    3162:	0f 17 40 d8          	movhps %xmm0,-0x28(%rax)
    3166:	48 39 d0             	cmp    %rdx,%rax
    3169:	0f 85 61 ff ff ff    	jne    30d0 <_ZN3nb215nb__init_timersEv+0x60>
    316f:	48 8d 81 88 9f 00 00 	lea    0x9f88(%rcx),%rax
    3176:	48 8d 3d 03 5f 00 00 	lea    0x5f03(%rip),%rdi        # 9080 <_ZN3nb215nb__timer_slotsE>
    317d:	48 c7 81 e8 9f 00 00 	movq   $0x0,0x9fe8(%rcx)
    3184:	00 00 00 00 
    3188:	48 89 81 70 9f 00 00 	mov    %rax,0x9f70(%rcx)
    318f:	48 8d 81 b0 9f 00 00 	lea    0x9fb0(%rcx),%rax
    3196:	48 89 81 98 9f 00 00 	mov    %rax,0x9f98(%rcx)
    319d:	48 8d 81 d8 9f 00 00 	lea    0x9fd8(%rcx),%rax
    31a4:	48 89 81 c0 9f 00 00 	mov    %rax,0x9fc0(%rcx)
    31ab:	31 c0                	xor    %eax,%eax
    31ad:	b9 e8 03 00 00       	mov    $0x3e8,%ecx
    31b2:	f3 48 ab             	rep stos %rax,%es:(%rdi)
    31b5:	e8 f6 e8 ff ff       	call   1ab0 <_Z19nb__get_time_ms_nowv>
    31ba:	48 89 05 7f dd 01 00 	mov    %rax,0x1dd7f(%rip)        # 20f40 <_ZN3nb2L22nb__last_timer_checkedE>
    31c1:	48 83 c4 08          	add    $0x8,%rsp
    31c5:	c3                   	ret    
    31c6:	66 2e 0f 1f 84 00 00 	cs nopw 0x0(%rax,%rax,1)
    31cd:	00 00 00 

00000000000031d0 <_ZN3nb216nb__check_timersEv>:
    31d0:	f3 0f 1e fa          	endbr64 
    31d4:	41 56                	push   %r14
    31d6:	41 55                	push   %r13
    31d8:	41 54                	push   %r12
    31da:	55                   	push   %rbp
    31db:	53                   	push   %rbx
    31dc:	e8 cf e8 ff ff       	call   1ab0 <_Z19nb__get_time_ms_nowv>
    31e1:	48 89 c5             	mov    %rax,%rbp
    31e4:	48 8b 05 55 dd 01 00 	mov    0x1dd55(%rip),%rax        # 20f40 <_ZN3nb2L22nb__last_timer_checkedE>
    31eb:	4c 8d 70 01          	lea    0x1(%rax),%r14
    31ef:	4c 39 f5             	cmp    %r14,%rbp
    31f2:	0f 82 91 00 00 00    	jb     3289 <_ZN3nb216nb__check_timersEv+0xb9>
    31f8:	4c 8d 2d 81 5e 00 00 	lea    0x5e81(%rip),%r13        # 9080 <_ZN3nb215nb__timer_slotsE>
    31ff:	49 bc cf f7 53 e3 a5 	movabs $0x20c49ba5e353f7cf,%r12
    3206:	9b c4 20 
    3209:	0f 1f 80 00 00 00 00 	nopl   0x0(%rax)
    3210:	4c 89 f2             	mov    %r14,%rdx
    3213:	48 c1 ea 03          	shr    $0x3,%rdx
    3217:	48 89 d0             	mov    %rdx,%rax
    321a:	49 f7 e4             	mul    %r12
    321d:	4c 89 f0             	mov    %r14,%rax
    3220:	48 c1 ea 04          	shr    $0x4,%rdx
    3224:	48 69 d2 e8 03 00 00 	imul   $0x3e8,%rdx,%rdx
    322b:	48 29 d0             	sub    %rdx,%rax
    322e:	48 63 d8             	movslq %eax,%rbx
    3231:	48 98                	cltq   
    3233:	49 8b 44 c5 00       	mov    0x0(%r13,%rax,8),%rax
    3238:	48 85 c0             	test   %rax,%rax
    323b:	75 26                	jne    3263 <_ZN3nb216nb__check_timersEv+0x93>
    323d:	eb 41                	jmp    3280 <_ZN3nb216nb__check_timersEv+0xb0>
    323f:	90                   	nop
    3240:	48 c7 42 18 00 00 00 	movq   $0x0,0x18(%rdx)
    3247:	00 
    3248:	49 89 54 dd 00       	mov    %rdx,0x0(%r13,%rbx,8)
    324d:	48 8b 70 08          	mov    0x8(%rax),%rsi
    3251:	48 89 c7             	mov    %rax,%rdi
    3254:	4c 89 f2             	mov    %r14,%rdx
    3257:	ff 10                	call   *(%rax)
    3259:	49 8b 44 dd 00       	mov    0x0(%r13,%rbx,8),%rax
    325e:	48 85 c0             	test   %rax,%rax
    3261:	74 1d                	je     3280 <_ZN3nb216nb__check_timersEv+0xb0>
    3263:	48 8b 50 10          	mov    0x10(%rax),%rdx
    3267:	48 85 d2             	test   %rdx,%rdx
    326a:	75 d4                	jne    3240 <_ZN3nb216nb__check_timersEv+0x70>
    326c:	49 c7 44 dd 00 00 00 	movq   $0x0,0x0(%r13,%rbx,8)
    3273:	00 00 
    3275:	eb d6                	jmp    324d <_ZN3nb216nb__check_timersEv+0x7d>
    3277:	66 0f 1f 84 00 00 00 	nopw   0x0(%rax,%rax,1)
    327e:	00 00 
    3280:	49 83 c6 01          	add    $0x1,%r14
    3284:	4c 39 f5             	cmp    %r14,%rbp
    3287:	73 87                	jae    3210 <_ZN3nb216nb__check_timersEv+0x40>
    3289:	5b                   	pop    %rbx
    328a:	48 89 2d af dc 01 00 	mov    %rbp,0x1dcaf(%rip)        # 20f40 <_ZN3nb2L22nb__last_timer_checkedE>
    3291:	5d                   	pop    %rbp
    3292:	41 5c                	pop    %r12
    3294:	41 5d                	pop    %r13
    3296:	41 5e                	pop    %r14
    3298:	c3                   	ret    

0000000000003299 <_ZN3nb1L21nb__connection_t_sizeEv>:
    3299:	f3 0f 1e fa          	endbr64 
    329d:	55                   	push   %rbp
    329e:	48 89 e5             	mov    %rsp,%rbp
    32a1:	b8 38 01 00 00       	mov    $0x138,%eax
    32a6:	5d                   	pop    %rbp
    32a7:	c3                   	ret    

00000000000032a8 <_ZN3nb2L21nb__connection_t_sizeEv>:
    32a8:	f3 0f 1e fa          	endbr64 
    32ac:	55                   	push   %rbp
    32ad:	48 89 e5             	mov    %rsp,%rbp
    32b0:	b8 38 01 00 00       	mov    $0x138,%eax
    32b5:	5d                   	pop    %rbp
    32b6:	c3                   	ret    

00000000000032b7 <_ZL11nb1callbackiPN3nb116dynamic_struct_0E>:
    32b7:	f3 0f 1e fa          	endbr64 
    32bb:	55                   	push   %rbp
    32bc:	48 89 e5             	mov    %rsp,%rbp
    32bf:	48 83 ec 70          	sub    $0x70,%rsp
    32c3:	89 7d 9c             	mov    %edi,-0x64(%rbp)
    32c6:	48 89 75 90          	mov    %rsi,-0x70(%rbp)
    32ca:	64 48 8b 04 25 28 00 	mov    %fs:0x28,%rax
    32d1:	00 00 
    32d3:	48 89 45 f8          	mov    %rax,-0x8(%rbp)
    32d7:	31 c0                	xor    %eax,%eax
    32d9:	83 7d 9c 01          	cmpl   $0x1,-0x64(%rbp)
    32dd:	75 4d                	jne    332c <_ZL11nb1callbackiPN3nb116dynamic_struct_0E+0x75>
    32df:	48 8d 4d b0          	lea    -0x50(%rbp),%rcx
    32e3:	48 8b 45 90          	mov    -0x70(%rbp),%rax
    32e7:	ba 40 00 00 00       	mov    $0x40,%edx
    32ec:	48 89 ce             	mov    %rcx,%rsi
    32ef:	48 89 c7             	mov    %rax,%rdi
    32f2:	e8 f9 e1 ff ff       	call   14f0 <_ZN3nb18nb__readEPNS_16dynamic_struct_0EPci>
    32f7:	89 45 ac             	mov    %eax,-0x54(%rbp)
    32fa:	8b 45 ac             	mov    -0x54(%rbp),%eax
    32fd:	48 98                	cltq   
    32ff:	c6 44 05 b0 00       	movb   $0x0,-0x50(%rbp,%rax,1)
    3304:	48 8d 45 b0          	lea    -0x50(%rbp),%rax
    3308:	48 89 c6             	mov    %rax,%rsi
    330b:	48 8d 05 3e 2d 00 00 	lea    0x2d3e(%rip),%rax        # 6050 <_IO_stdin_used+0x50>
    3312:	48 89 c7             	mov    %rax,%rdi
    3315:	b8 00 00 00 00       	mov    $0x0,%eax
    331a:	e8 91 de ff ff       	call   11b0 <printf@plt>
    331f:	48 8d 05 fe 5c 00 00 	lea    0x5cfe(%rip),%rax        # 9024 <running>
    3326:	c7 00 00 00 00 00    	movl   $0x0,(%rax)
    332c:	90                   	nop
    332d:	48 8b 45 f8          	mov    -0x8(%rbp),%rax
    3331:	64 48 2b 04 25 28 00 	sub    %fs:0x28,%rax
    3338:	00 00 
    333a:	74 05                	je     3341 <_ZL11nb1callbackiPN3nb116dynamic_struct_0E+0x8a>
    333c:	e8 0f df ff ff       	call   1250 <__stack_chk_fail@plt>
    3341:	c9                   	leave  
    3342:	c3                   	ret    

0000000000003343 <_ZL11nb2callbackiPN3nb216dynamic_struct_2E>:
    3343:	f3 0f 1e fa          	endbr64 
    3347:	55                   	push   %rbp
    3348:	48 89 e5             	mov    %rsp,%rbp
    334b:	48 83 ec 70          	sub    $0x70,%rsp
    334f:	89 7d 9c             	mov    %edi,-0x64(%rbp)
    3352:	48 89 75 90          	mov    %rsi,-0x70(%rbp)
    3356:	64 48 8b 04 25 28 00 	mov    %fs:0x28,%rax
    335d:	00 00 
    335f:	48 89 45 f8          	mov    %rax,-0x8(%rbp)
    3363:	31 c0                	xor    %eax,%eax
    3365:	83 7d 9c 01          	cmpl   $0x1,-0x64(%rbp)
    3369:	75 4d                	jne    33b8 <_ZL11nb2callbackiPN3nb216dynamic_struct_2E+0x75>
    336b:	48 8d 4d b0          	lea    -0x50(%rbp),%rcx
    336f:	48 8b 45 90          	mov    -0x70(%rbp),%rax
    3373:	ba 40 00 00 00       	mov    $0x40,%edx
    3378:	48 89 ce             	mov    %rcx,%rsi
    337b:	48 89 c7             	mov    %rax,%rdi
    337e:	e8 bd e4 ff ff       	call   1840 <_ZN3nb28nb__readEPNS_16dynamic_struct_2EPci>
    3383:	89 45 ac             	mov    %eax,-0x54(%rbp)
    3386:	8b 45 ac             	mov    -0x54(%rbp),%eax
    3389:	48 98                	cltq   
    338b:	c6 44 05 b0 00       	movb   $0x0,-0x50(%rbp,%rax,1)
    3390:	48 8d 45 b0          	lea    -0x50(%rbp),%rax
    3394:	48 89 c6             	mov    %rax,%rsi
    3397:	48 8d 05 b2 2c 00 00 	lea    0x2cb2(%rip),%rax        # 6050 <_IO_stdin_used+0x50>
    339e:	48 89 c7             	mov    %rax,%rdi
    33a1:	b8 00 00 00 00       	mov    $0x0,%eax
    33a6:	e8 05 de ff ff       	call   11b0 <printf@plt>
    33ab:	48 8d 05 72 5c 00 00 	lea    0x5c72(%rip),%rax        # 9024 <running>
    33b2:	c7 00 00 00 00 00    	movl   $0x0,(%rax)
    33b8:	90                   	nop
    33b9:	48 8b 45 f8          	mov    -0x8(%rbp),%rax
    33bd:	64 48 2b 04 25 28 00 	sub    %fs:0x28,%rax
    33c4:	00 00 
    33c6:	74 05                	je     33cd <_ZL11nb2callbackiPN3nb216dynamic_struct_2E+0x8a>
    33c8:	e8 83 de ff ff       	call   1250 <__stack_chk_fail@plt>
    33cd:	c9                   	leave  
    33ce:	c3                   	ret    

00000000000033cf <main>:
    33cf:	f3 0f 1e fa          	endbr64 
    33d3:	55                   	push   %rbp
    33d4:	48 89 e5             	mov    %rsp,%rbp
    33d7:	48 83 ec 20          	sub    $0x20,%rsp
    33db:	89 7d ec             	mov    %edi,-0x14(%rbp)
    33de:	48 89 75 e0          	mov    %rsi,-0x20(%rbp)
    33e2:	e8 0c 01 00 00       	call   34f3 <_ZN3nb112nb__mix_initEv>
    33e7:	e8 a0 02 00 00       	call   368c <_ZN3nb212nb__mix_initEv>
    33ec:	48 8d 05 6c 2c 00 00 	lea    0x2c6c(%rip),%rax        # 605f <_IO_stdin_used+0x5f>
    33f3:	48 89 c7             	mov    %rax,%rdi
    33f6:	e8 c5 de ff ff       	call   12c0 <puts@plt>
    33fb:	e8 e0 e9 ff ff       	call   1de0 <_ZN3nb112nb__net_initEv>
    3400:	e8 db f0 ff ff       	call   24e0 <_ZN3nb212nb__net_initEv>
    3405:	48 8d 05 63 2c 00 00 	lea    0x2c63(%rip),%rax        # 606f <_IO_stdin_used+0x6f>
    340c:	48 89 c7             	mov    %rax,%rdi
    340f:	e8 ac de ff ff       	call   12c0 <puts@plt>
    3414:	48 8d 05 55 5c 00 00 	lea    0x5c55(%rip),%rax        # 9070 <_ZN3nb114nb__my_host_idE>
    341b:	48 8d 15 f6 5b 00 00 	lea    0x5bf6(%rip),%rdx        # 9018 <client_id>
    3422:	8b 0a                	mov    (%rdx),%ecx
    3424:	89 08                	mov    %ecx,(%rax)
    3426:	0f b7 52 04          	movzwl 0x4(%rdx),%edx
    342a:	66 89 50 04          	mov    %dx,0x4(%rax)
    342e:	48 8d 05 23 5c 00 00 	lea    0x5c23(%rip),%rax        # 9058 <_ZN3nb214nb__my_host_idE>
    3435:	48 8d 15 e2 5b 00 00 	lea    0x5be2(%rip),%rdx        # 901e <server_id>
    343c:	8b 0a                	mov    (%rdx),%ecx
    343e:	89 08                	mov    %ecx,(%rax)
    3440:	0f b7 52 04          	movzwl 0x4(%rdx),%edx
    3444:	66 89 50 04          	mov    %dx,0x4(%rax)
    3448:	48 8d 05 68 fe ff ff 	lea    -0x198(%rip),%rax        # 32b7 <_ZL11nb1callbackiPN3nb116dynamic_struct_0E>
    344f:	48 89 c1             	mov    %rax,%rcx
    3452:	ba 91 1f 00 00       	mov    $0x1f91,%edx
    3457:	be 90 1f 00 00       	mov    $0x1f90,%esi
    345c:	48 8d 05 bb 5b 00 00 	lea    0x5bbb(%rip),%rax        # 901e <server_id>
    3463:	48 89 c7             	mov    %rax,%rdi
    3466:	e8 a5 e9 ff ff       	call   1e10 <_ZN3nb113nb__establishEPcjjPFviPNS_16dynamic_struct_0EE>
    346b:	48 89 45 f0          	mov    %rax,-0x10(%rbp)
    346f:	48 8d 05 cd fe ff ff 	lea    -0x133(%rip),%rax        # 3343 <_ZL11nb2callbackiPN3nb216dynamic_struct_2E>
    3476:	48 89 c1             	mov    %rax,%rcx
    3479:	ba 90 1f 00 00       	mov    $0x1f90,%edx
    347e:	be 91 1f 00 00       	mov    $0x1f91,%esi
    3483:	48 8d 05 94 5b 00 00 	lea    0x5b94(%rip),%rax        # 901e <server_id>
    348a:	48 89 c7             	mov    %rax,%rdi
    348d:	e8 7e f0 ff ff       	call   2510 <_ZN3nb213nb__establishEPcjjPFviPNS_16dynamic_struct_2EE>
    3492:	48 89 45 f8          	mov    %rax,-0x8(%rbp)
    3496:	48 8b 45 f0          	mov    -0x10(%rbp),%rax
    349a:	ba 12 00 00 00       	mov    $0x12,%edx
    349f:	48 8d 0d d9 2b 00 00 	lea    0x2bd9(%rip),%rcx        # 607f <_IO_stdin_used+0x7f>
    34a6:	48 89 ce             	mov    %rcx,%rsi
    34a9:	48 89 c7             	mov    %rax,%rdi
    34ac:	e8 6f eb ff ff       	call   2020 <_ZN3nb18nb__sendEPNS_16dynamic_struct_0EPci>
    34b1:	eb 14                	jmp    34c7 <main+0xf8>
    34b3:	e8 88 e6 ff ff       	call   1b40 <_ZN3nb118nb__main_loop_stepEv>
    34b8:	e8 f3 e7 ff ff       	call   1cb0 <_ZN3nb218nb__main_loop_stepEv>
    34bd:	bf a0 86 01 00       	mov    $0x186a0,%edi
    34c2:	e8 c9 dd ff ff       	call   1290 <usleep@plt>
    34c7:	48 8d 05 56 5b 00 00 	lea    0x5b56(%rip),%rax        # 9024 <running>
    34ce:	8b 00                	mov    (%rax),%eax
    34d0:	85 c0                	test   %eax,%eax
    34d2:	75 df                	jne    34b3 <main+0xe4>
    34d4:	48 8b 45 f0          	mov    -0x10(%rbp),%rax
    34d8:	48 89 c7             	mov    %rax,%rdi
    34db:	e8 40 ea ff ff       	call   1f20 <_ZN3nb114nb__destablishEPNS_16dynamic_struct_0E>
    34e0:	48 8b 45 f8          	mov    -0x8(%rbp),%rax
    34e4:	48 89 c7             	mov    %rax,%rdi
    34e7:	e8 34 f1 ff ff       	call   2620 <_ZN3nb214nb__destablishEPNS_16dynamic_struct_2E>
    34ec:	b8 00 00 00 00       	mov    $0x0,%eax
    34f1:	c9                   	leave  
    34f2:	c3                   	ret    

00000000000034f3 <_ZN3nb112nb__mix_initEv>:
    34f3:	f3 0f 1e fa          	endbr64 
    34f7:	55                   	push   %rbp
    34f8:	48 89 e5             	mov    %rsp,%rbp
    34fb:	90                   	nop
    34fc:	5d                   	pop    %rbp
    34fd:	c3                   	ret    

00000000000034fe <_ZN3nb114nb__mix_deinitEv>:
    34fe:	f3 0f 1e fa          	endbr64 
    3502:	55                   	push   %rbp
    3503:	48 89 e5             	mov    %rsp,%rbp
    3506:	90                   	nop
    3507:	5d                   	pop    %rbp
    3508:	c3                   	ret    

0000000000003509 <_ZN3nb115nb__poll_packetEPii>:
    3509:	f3 0f 1e fa          	endbr64 
    350d:	55                   	push   %rbp
    350e:	48 89 e5             	mov    %rsp,%rbp
    3511:	48 83 ec 20          	sub    $0x20,%rsp
    3515:	48 89 7d e8          	mov    %rdi,-0x18(%rbp)
    3519:	89 75 e4             	mov    %esi,-0x1c(%rbp)
    351c:	0f b6 05 51 e2 01 00 	movzbl 0x1e251(%rip),%eax        # 21774 <_ZL8tto_busy>
    3523:	84 c0                	test   %al,%al
    3525:	74 66                	je     358d <_ZN3nb115nb__poll_packetEPii+0x84>
    3527:	8b 45 e4             	mov    -0x1c(%rbp),%eax
    352a:	05 00 04 00 00       	add    $0x400,%eax
    352f:	48 98                	cltq   
    3531:	48 89 c7             	mov    %rax,%rdi
    3534:	e8 37 dd ff ff       	call   1270 <malloc@plt>
    3539:	48 89 45 f8          	mov    %rax,-0x8(%rbp)
    353d:	8b 15 2d e2 01 00    	mov    0x1e22d(%rip),%edx        # 21770 <_ZL17tto_sent_data_len>
    3543:	48 8b 45 e8          	mov    -0x18(%rbp),%rax
    3547:	89 10                	mov    %edx,(%rax)
    3549:	8b 05 21 e2 01 00    	mov    0x1e221(%rip),%eax        # 21770 <_ZL17tto_sent_data_len>
    354f:	48 63 d0             	movslq %eax,%rdx
    3552:	48 8b 05 0f e2 01 00 	mov    0x1e20f(%rip),%rax        # 21768 <_ZL13tto_sent_data>
    3559:	8b 4d e4             	mov    -0x1c(%rbp),%ecx
    355c:	48 63 f1             	movslq %ecx,%rsi
    355f:	48 8b 4d f8          	mov    -0x8(%rbp),%rcx
    3563:	48 01 f1             	add    %rsi,%rcx
    3566:	48 89 c6             	mov    %rax,%rsi
    3569:	48 89 cf             	mov    %rcx,%rdi
    356c:	e8 8f dc ff ff       	call   1200 <memcpy@plt>
    3571:	c6 05 fc e1 01 00 00 	movb   $0x0,0x1e1fc(%rip)        # 21774 <_ZL8tto_busy>
    3578:	48 8b 05 e9 e1 01 00 	mov    0x1e1e9(%rip),%rax        # 21768 <_ZL13tto_sent_data>
    357f:	48 89 c7             	mov    %rax,%rdi
    3582:	e8 d9 dc ff ff       	call   1260 <free@plt>
    3587:	48 8b 45 f8          	mov    -0x8(%rbp),%rax
    358b:	eb 05                	jmp    3592 <_ZN3nb115nb__poll_packetEPii+0x89>
    358d:	b8 00 00 00 00       	mov    $0x0,%eax
    3592:	c9                   	leave  
    3593:	c3                   	ret    

0000000000003594 <_ZN3nb115nb__send_packetEPci>:
    3594:	f3 0f 1e fa          	endbr64 
    3598:	55                   	push   %rbp
    3599:	48 89 e5             	mov    %rsp,%rbp
    359c:	48 83 ec 40          	sub    $0x40,%rsp
    35a0:	48 89 7d c8          	mov    %rdi,-0x38(%rbp)
    35a4:	89 75 c4             	mov    %esi,-0x3c(%rbp)
    35a7:	64 48 8b 04 25 28 00 	mov    %fs:0x28,%rax
    35ae:	00 00 
    35b0:	48 89 45 f8          	mov    %rax,-0x8(%rbp)
    35b4:	31 c0                	xor    %eax,%eax
    35b6:	8b 45 c4             	mov    -0x3c(%rbp),%eax
    35b9:	48 98                	cltq   
    35bb:	48 89 c7             	mov    %rax,%rdi
    35be:	e8 ad dc ff ff       	call   1270 <malloc@plt>
    35c3:	48 89 45 d8          	mov    %rax,-0x28(%rbp)
    35c7:	8b 45 c4             	mov    -0x3c(%rbp),%eax
    35ca:	48 63 d0             	movslq %eax,%rdx
    35cd:	48 8b 45 d8          	mov    -0x28(%rbp),%rax
    35d1:	48 8b 4d c8          	mov    -0x38(%rbp),%rcx
    35d5:	48 89 ce             	mov    %rcx,%rsi
    35d8:	48 89 c7             	mov    %rax,%rdi
    35db:	e8 20 dc ff ff       	call   1200 <memcpy@plt>
    35e0:	48 8d 55 c4          	lea    -0x3c(%rbp),%rdx
    35e4:	48 8d 45 d8          	lea    -0x28(%rbp),%rax
    35e8:	48 89 d6             	mov    %rdx,%rsi
    35eb:	48 89 c7             	mov    %rax,%rdi
    35ee:	e8 15 04 00 00       	call   3a08 <_ZSt9make_pairIRPcRiESt4pairINSt25__strip_reference_wrapperINSt5decayIT_E4typeEE6__typeENS4_INS5_IT0_E4typeEE6__typeEEOS6_OSB_>
    35f3:	48 89 45 e0          	mov    %rax,-0x20(%rbp)
    35f7:	48 89 55 e8          	mov    %rdx,-0x18(%rbp)
    35fb:	48 8d 45 e0          	lea    -0x20(%rbp),%rax
    35ff:	48 89 c6             	mov    %rax,%rsi
    3602:	48 8d 05 f7 e1 01 00 	lea    0x1e1f7(%rip),%rax        # 21800 <_ZL9ott_queue>
    3609:	48 89 c7             	mov    %rax,%rdi
    360c:	e8 6d 04 00 00       	call   3a7e <_ZNSt5queueISt4pairIPciESt5dequeIS2_SaIS2_EEE4pushEOS2_>
    3611:	0f b6 05 6c e1 01 00 	movzbl 0x1e16c(%rip),%eax        # 21784 <_ZL8ott_busy>
    3618:	84 c0                	test   %al,%al
    361a:	74 07                	je     3623 <_ZN3nb115nb__send_packetEPci+0x8f>
    361c:	b8 00 00 00 00       	mov    $0x0,%eax
    3621:	eb 53                	jmp    3676 <_ZN3nb115nb__send_packetEPci+0xe2>
    3623:	c6 05 5a e1 01 00 01 	movb   $0x1,0x1e15a(%rip)        # 21784 <_ZL8ott_busy>
    362a:	48 8d 05 cf e1 01 00 	lea    0x1e1cf(%rip),%rax        # 21800 <_ZL9ott_queue>
    3631:	48 89 c7             	mov    %rax,%rdi
    3634:	e8 7d 04 00 00       	call   3ab6 <_ZNSt5queueISt4pairIPciESt5dequeIS2_SaIS2_EEE5frontEv>
    3639:	48 8b 50 08          	mov    0x8(%rax),%rdx
    363d:	48 8b 00             	mov    (%rax),%rax
    3640:	48 89 45 e0          	mov    %rax,-0x20(%rbp)
    3644:	48 89 55 e8          	mov    %rdx,-0x18(%rbp)
    3648:	48 8d 05 b1 e1 01 00 	lea    0x1e1b1(%rip),%rax        # 21800 <_ZL9ott_queue>
    364f:	48 89 c7             	mov    %rax,%rdi
    3652:	e8 7d 04 00 00       	call   3ad4 <_ZNSt5queueISt4pairIPciESt5dequeIS2_SaIS2_EEE3popEv>
    3657:	48 8b 45 e0          	mov    -0x20(%rbp),%rax
    365b:	48 89 05 16 e1 01 00 	mov    %rax,0x1e116(%rip)        # 21778 <_ZL13ott_sent_data>
    3662:	8b 45 e8             	mov    -0x18(%rbp),%eax
    3665:	89 45 d4             	mov    %eax,-0x2c(%rbp)
    3668:	8b 45 d4             	mov    -0x2c(%rbp),%eax
    366b:	89 05 0f e1 01 00    	mov    %eax,0x1e10f(%rip)        # 21780 <_ZL17ott_sent_data_len>
    3671:	b8 00 00 00 00       	mov    $0x0,%eax
    3676:	48 8b 55 f8          	mov    -0x8(%rbp),%rdx
    367a:	64 48 2b 14 25 28 00 	sub    %fs:0x28,%rdx
    3681:	00 00 
    3683:	74 05                	je     368a <_ZN3nb115nb__send_packetEPci+0xf6>
    3685:	e8 c6 db ff ff       	call   1250 <__stack_chk_fail@plt>
    368a:	c9                   	leave  
    368b:	c3                   	ret    

000000000000368c <_ZN3nb212nb__mix_initEv>:
    368c:	f3 0f 1e fa          	endbr64 
    3690:	55                   	push   %rbp
    3691:	48 89 e5             	mov    %rsp,%rbp
    3694:	90                   	nop
    3695:	5d                   	pop    %rbp
    3696:	c3                   	ret    

0000000000003697 <_ZN3nb214nb__mix_deinitEv>:
    3697:	f3 0f 1e fa          	endbr64 
    369b:	55                   	push   %rbp
    369c:	48 89 e5             	mov    %rsp,%rbp
    369f:	90                   	nop
    36a0:	5d                   	pop    %rbp
    36a1:	c3                   	ret    

00000000000036a2 <_ZN3nb215nb__poll_packetEPii>:
    36a2:	f3 0f 1e fa          	endbr64 
    36a6:	55                   	push   %rbp
    36a7:	48 89 e5             	mov    %rsp,%rbp
    36aa:	48 83 ec 20          	sub    $0x20,%rsp
    36ae:	48 89 7d e8          	mov    %rdi,-0x18(%rbp)
    36b2:	89 75 e4             	mov    %esi,-0x1c(%rbp)
    36b5:	0f b6 05 c8 e0 01 00 	movzbl 0x1e0c8(%rip),%eax        # 21784 <_ZL8ott_busy>
    36bc:	84 c0                	test   %al,%al
    36be:	74 66                	je     3726 <_ZN3nb215nb__poll_packetEPii+0x84>
    36c0:	8b 45 e4             	mov    -0x1c(%rbp),%eax
    36c3:	05 00 04 00 00       	add    $0x400,%eax
    36c8:	48 98                	cltq   
    36ca:	48 89 c7             	mov    %rax,%rdi
    36cd:	e8 9e db ff ff       	call   1270 <malloc@plt>
    36d2:	48 89 45 f8          	mov    %rax,-0x8(%rbp)
    36d6:	8b 15 a4 e0 01 00    	mov    0x1e0a4(%rip),%edx        # 21780 <_ZL17ott_sent_data_len>
    36dc:	48 8b 45 e8          	mov    -0x18(%rbp),%rax
    36e0:	89 10                	mov    %edx,(%rax)
    36e2:	8b 05 98 e0 01 00    	mov    0x1e098(%rip),%eax        # 21780 <_ZL17ott_sent_data_len>
    36e8:	48 63 d0             	movslq %eax,%rdx
    36eb:	48 8b 05 86 e0 01 00 	mov    0x1e086(%rip),%rax        # 21778 <_ZL13ott_sent_data>
    36f2:	8b 4d e4             	mov    -0x1c(%rbp),%ecx
    36f5:	48 63 f1             	movslq %ecx,%rsi
    36f8:	48 8b 4d f8          	mov    -0x8(%rbp),%rcx
    36fc:	48 01 f1             	add    %rsi,%rcx
    36ff:	48 89 c6             	mov    %rax,%rsi
    3702:	48 89 cf             	mov    %rcx,%rdi
    3705:	e8 f6 da ff ff       	call   1200 <memcpy@plt>
    370a:	c6 05 73 e0 01 00 00 	movb   $0x0,0x1e073(%rip)        # 21784 <_ZL8ott_busy>
    3711:	48 8b 05 60 e0 01 00 	mov    0x1e060(%rip),%rax        # 21778 <_ZL13ott_sent_data>
    3718:	48 89 c7             	mov    %rax,%rdi
    371b:	e8 40 db ff ff       	call   1260 <free@plt>
    3720:	48 8b 45 f8          	mov    -0x8(%rbp),%rax
    3724:	eb 05                	jmp    372b <_ZN3nb215nb__poll_packetEPii+0x89>
    3726:	b8 00 00 00 00       	mov    $0x0,%eax
    372b:	c9                   	leave  
    372c:	c3                   	ret    

000000000000372d <_ZN3nb215nb__send_packetEPci>:
    372d:	f3 0f 1e fa          	endbr64 
    3731:	55                   	push   %rbp
    3732:	48 89 e5             	mov    %rsp,%rbp
    3735:	48 83 ec 40          	sub    $0x40,%rsp
    3739:	48 89 7d c8          	mov    %rdi,-0x38(%rbp)
    373d:	89 75 c4             	mov    %esi,-0x3c(%rbp)
    3740:	64 48 8b 04 25 28 00 	mov    %fs:0x28,%rax
    3747:	00 00 
    3749:	48 89 45 f8          	mov    %rax,-0x8(%rbp)
    374d:	31 c0                	xor    %eax,%eax
    374f:	8b 45 c4             	mov    -0x3c(%rbp),%eax
    3752:	48 98                	cltq   
    3754:	48 89 c7             	mov    %rax,%rdi
    3757:	e8 14 db ff ff       	call   1270 <malloc@plt>
    375c:	48 89 45 d8          	mov    %rax,-0x28(%rbp)
    3760:	8b 45 c4             	mov    -0x3c(%rbp),%eax
    3763:	48 63 d0             	movslq %eax,%rdx
    3766:	48 8b 45 d8          	mov    -0x28(%rbp),%rax
    376a:	48 8b 4d c8          	mov    -0x38(%rbp),%rcx
    376e:	48 89 ce             	mov    %rcx,%rsi
    3771:	48 89 c7             	mov    %rax,%rdi
    3774:	e8 87 da ff ff       	call   1200 <memcpy@plt>
    3779:	48 8d 55 c4          	lea    -0x3c(%rbp),%rdx
    377d:	48 8d 45 d8          	lea    -0x28(%rbp),%rax
    3781:	48 89 d6             	mov    %rdx,%rsi
    3784:	48 89 c7             	mov    %rax,%rdi
    3787:	e8 7c 02 00 00       	call   3a08 <_ZSt9make_pairIRPcRiESt4pairINSt25__strip_reference_wrapperINSt5decayIT_E4typeEE6__typeENS4_INS5_IT0_E4typeEE6__typeEEOS6_OSB_>
    378c:	48 89 45 e0          	mov    %rax,-0x20(%rbp)
    3790:	48 89 55 e8          	mov    %rdx,-0x18(%rbp)
    3794:	48 8d 45 e0          	lea    -0x20(%rbp),%rax
    3798:	48 89 c6             	mov    %rax,%rsi
    379b:	48 8d 05 fe df 01 00 	lea    0x1dffe(%rip),%rax        # 217a0 <_ZL9tto_queue>
    37a2:	48 89 c7             	mov    %rax,%rdi
    37a5:	e8 d4 02 00 00       	call   3a7e <_ZNSt5queueISt4pairIPciESt5dequeIS2_SaIS2_EEE4pushEOS2_>
    37aa:	0f b6 05 c3 df 01 00 	movzbl 0x1dfc3(%rip),%eax        # 21774 <_ZL8tto_busy>
    37b1:	84 c0                	test   %al,%al
    37b3:	74 07                	je     37bc <_ZN3nb215nb__send_packetEPci+0x8f>
    37b5:	b8 00 00 00 00       	mov    $0x0,%eax
    37ba:	eb 53                	jmp    380f <_ZN3nb215nb__send_packetEPci+0xe2>
    37bc:	c6 05 b1 df 01 00 01 	movb   $0x1,0x1dfb1(%rip)        # 21774 <_ZL8tto_busy>
    37c3:	48 8d 05 d6 df 01 00 	lea    0x1dfd6(%rip),%rax        # 217a0 <_ZL9tto_queue>
    37ca:	48 89 c7             	mov    %rax,%rdi
    37cd:	e8 e4 02 00 00       	call   3ab6 <_ZNSt5queueISt4pairIPciESt5dequeIS2_SaIS2_EEE5frontEv>
    37d2:	48 8b 50 08          	mov    0x8(%rax),%rdx
    37d6:	48 8b 00             	mov    (%rax),%rax
    37d9:	48 89 45 e0          	mov    %rax,-0x20(%rbp)
    37dd:	48 89 55 e8          	mov    %rdx,-0x18(%rbp)
    37e1:	48 8d 05 b8 df 01 00 	lea    0x1dfb8(%rip),%rax        # 217a0 <_ZL9tto_queue>
    37e8:	48 89 c7             	mov    %rax,%rdi
    37eb:	e8 e4 02 00 00       	call   3ad4 <_ZNSt5queueISt4pairIPciESt5dequeIS2_SaIS2_EEE3popEv>
    37f0:	48 8b 45 e0          	mov    -0x20(%rbp),%rax
    37f4:	48 89 05 6d df 01 00 	mov    %rax,0x1df6d(%rip)        # 21768 <_ZL13tto_sent_data>
    37fb:	8b 45 e8             	mov    -0x18(%rbp),%eax
    37fe:	89 45 d4             	mov    %eax,-0x2c(%rbp)
    3801:	8b 45 d4             	mov    -0x2c(%rbp),%eax
    3804:	89 05 66 df 01 00    	mov    %eax,0x1df66(%rip)        # 21770 <_ZL17tto_sent_data_len>
    380a:	b8 00 00 00 00       	mov    $0x0,%eax
    380f:	48 8b 55 f8          	mov    -0x8(%rbp),%rdx
    3813:	64 48 2b 14 25 28 00 	sub    %fs:0x28,%rdx
    381a:	00 00 
    381c:	74 05                	je     3823 <_ZN3nb215nb__send_packetEPci+0xf6>
    381e:	e8 2d da ff ff       	call   1250 <__stack_chk_fail@plt>
    3823:	c9                   	leave  
    3824:	c3                   	ret    

0000000000003825 <_ZN3nb223nb__request_send_bufferEv>:
    3825:	f3 0f 1e fa          	endbr64 
    3829:	55                   	push   %rbp
    382a:	48 89 e5             	mov    %rsp,%rbp
    382d:	bf 00 04 00 00       	mov    $0x400,%edi
    3832:	e8 39 da ff ff       	call   1270 <malloc@plt>
    3837:	5d                   	pop    %rbp
    3838:	c3                   	ret    

0000000000003839 <_ZN3nb222nb__return_send_bufferEPc>:
    3839:	f3 0f 1e fa          	endbr64 
    383d:	55                   	push   %rbp
    383e:	48 89 e5             	mov    %rsp,%rbp
    3841:	48 83 ec 10          	sub    $0x10,%rsp
    3845:	48 89 7d f8          	mov    %rdi,-0x8(%rbp)
    3849:	48 8b 45 f8          	mov    -0x8(%rbp),%rax
    384d:	48 89 c7             	mov    %rax,%rdi
    3850:	e8 0b da ff ff       	call   1260 <free@plt>
    3855:	90                   	nop
    3856:	c9                   	leave  
    3857:	c3                   	ret    

0000000000003858 <_Z41__static_initialization_and_destruction_0ii>:
    3858:	f3 0f 1e fa          	endbr64 
    385c:	55                   	push   %rbp
    385d:	48 89 e5             	mov    %rsp,%rbp
    3860:	48 83 ec 10          	sub    $0x10,%rsp
    3864:	89 7d fc             	mov    %edi,-0x4(%rbp)
    3867:	89 75 f8             	mov    %esi,-0x8(%rbp)
    386a:	83 7d fc 01          	cmpl   $0x1,-0x4(%rbp)
    386e:	0f 85 a3 00 00 00    	jne    3917 <_Z41__static_initialization_and_destruction_0ii+0xbf>
    3874:	81 7d f8 ff ff 00 00 	cmpl   $0xffff,-0x8(%rbp)
    387b:	0f 85 96 00 00 00    	jne    3917 <_Z41__static_initialization_and_destruction_0ii+0xbf>
    3881:	48 8d 05 d8 de 01 00 	lea    0x1ded8(%rip),%rax        # 21760 <_ZStL8__ioinit>
    3888:	48 89 c7             	mov    %rax,%rdi
    388b:	e8 20 da ff ff       	call   12b0 <_ZNSt8ios_base4InitC1Ev@plt>
    3890:	48 8d 05 71 57 00 00 	lea    0x5771(%rip),%rax        # 9008 <__dso_handle>
    3897:	48 89 c2             	mov    %rax,%rdx
    389a:	48 8d 05 bf de 01 00 	lea    0x1debf(%rip),%rax        # 21760 <_ZStL8__ioinit>
    38a1:	48 89 c6             	mov    %rax,%rsi
    38a4:	48 8b 05 4d 57 00 00 	mov    0x574d(%rip),%rax        # 8ff8 <_ZNSt8ios_base4InitD1Ev@GLIBCXX_3.4>
    38ab:	48 89 c7             	mov    %rax,%rdi
    38ae:	e8 5d d9 ff ff       	call   1210 <__cxa_atexit@plt>
    38b3:	48 8d 05 e6 de 01 00 	lea    0x1dee6(%rip),%rax        # 217a0 <_ZL9tto_queue>
    38ba:	48 89 c7             	mov    %rax,%rdi
    38bd:	e8 d4 00 00 00       	call   3996 <_ZNSt5queueISt4pairIPciESt5dequeIS2_SaIS2_EEEC1IS5_vEEv>
    38c2:	48 8d 05 3f 57 00 00 	lea    0x573f(%rip),%rax        # 9008 <__dso_handle>
    38c9:	48 89 c2             	mov    %rax,%rdx
    38cc:	48 8d 05 cd de 01 00 	lea    0x1decd(%rip),%rax        # 217a0 <_ZL9tto_queue>
    38d3:	48 89 c6             	mov    %rax,%rsi
    38d6:	48 8d 05 e1 19 00 00 	lea    0x19e1(%rip),%rax        # 52be <_ZNSt5queueISt4pairIPciESt5dequeIS2_SaIS2_EEED1Ev>
    38dd:	48 89 c7             	mov    %rax,%rdi
    38e0:	e8 2b d9 ff ff       	call   1210 <__cxa_atexit@plt>
    38e5:	48 8d 05 14 df 01 00 	lea    0x1df14(%rip),%rax        # 21800 <_ZL9ott_queue>
    38ec:	48 89 c7             	mov    %rax,%rdi
    38ef:	e8 a2 00 00 00       	call   3996 <_ZNSt5queueISt4pairIPciESt5dequeIS2_SaIS2_EEEC1IS5_vEEv>
    38f4:	48 8d 05 0d 57 00 00 	lea    0x570d(%rip),%rax        # 9008 <__dso_handle>
    38fb:	48 89 c2             	mov    %rax,%rdx
    38fe:	48 8d 05 fb de 01 00 	lea    0x1defb(%rip),%rax        # 21800 <_ZL9ott_queue>
    3905:	48 89 c6             	mov    %rax,%rsi
    3908:	48 8d 05 af 19 00 00 	lea    0x19af(%rip),%rax        # 52be <_ZNSt5queueISt4pairIPciESt5dequeIS2_SaIS2_EEED1Ev>
    390f:	48 89 c7             	mov    %rax,%rdi
    3912:	e8 f9 d8 ff ff       	call   1210 <__cxa_atexit@plt>
    3917:	90                   	nop
    3918:	c9                   	leave  
    3919:	c3                   	ret    

000000000000391a <_GLOBAL__sub_I_nb_mix_transport.cc>:
    391a:	f3 0f 1e fa          	endbr64 
    391e:	55                   	push   %rbp
    391f:	48 89 e5             	mov    %rsp,%rbp
    3922:	be ff ff 00 00       	mov    $0xffff,%esi
    3927:	bf 01 00 00 00       	mov    $0x1,%edi
    392c:	e8 27 ff ff ff       	call   3858 <_Z41__static_initialization_and_destruction_0ii>
    3931:	5d                   	pop    %rbp
    3932:	c3                   	ret    

0000000000003933 <_ZnwmPv>:
    3933:	f3 0f 1e fa          	endbr64 
    3937:	55                   	push   %rbp
    3938:	48 89 e5             	mov    %rsp,%rbp
    393b:	48 89 7d f8          	mov    %rdi,-0x8(%rbp)
    393f:	48 89 75 f0          	mov    %rsi,-0x10(%rbp)
    3943:	48 8b 45 f0          	mov    -0x10(%rbp),%rax
    3947:	5d                   	pop    %rbp
    3948:	c3                   	ret    

0000000000003949 <_ZSt16__deque_buf_sizem>:
    3949:	f3 0f 1e fa          	endbr64 
    394d:	55                   	push   %rbp
    394e:	48 89 e5             	mov    %rsp,%rbp
    3951:	48 89 7d f8          	mov    %rdi,-0x8(%rbp)
    3955:	48 81 7d f8 ff 01 00 	cmpq   $0x1ff,-0x8(%rbp)
    395c:	00 
    395d:	77 10                	ja     396f <_ZSt16__deque_buf_sizem+0x26>
    395f:	b8 00 02 00 00       	mov    $0x200,%eax
    3964:	ba 00 00 00 00       	mov    $0x0,%edx
    3969:	48 f7 75 f8          	divq   -0x8(%rbp)
    396d:	eb 05                	jmp    3974 <_ZSt16__deque_buf_sizem+0x2b>
    396f:	b8 01 00 00 00       	mov    $0x1,%eax
    3974:	5d                   	pop    %rbp
    3975:	c3                   	ret    

0000000000003976 <_ZNSt5dequeISt4pairIPciESaIS2_EEC1Ev>:
    3976:	f3 0f 1e fa          	endbr64 
    397a:	55                   	push   %rbp
    397b:	48 89 e5             	mov    %rsp,%rbp
    397e:	48 83 ec 10          	sub    $0x10,%rsp
    3982:	48 89 7d f8          	mov    %rdi,-0x8(%rbp)
    3986:	48 8b 45 f8          	mov    -0x8(%rbp),%rax
    398a:	48 89 c7             	mov    %rax,%rdi
    398d:	e8 82 01 00 00       	call   3b14 <_ZNSt11_Deque_baseISt4pairIPciESaIS2_EEC1Ev>
    3992:	90                   	nop
    3993:	c9                   	leave  
    3994:	c3                   	ret    
    3995:	90                   	nop

0000000000003996 <_ZNSt5queueISt4pairIPciESt5dequeIS2_SaIS2_EEEC1IS5_vEEv>:
    3996:	f3 0f 1e fa          	endbr64 
    399a:	55                   	push   %rbp
    399b:	48 89 e5             	mov    %rsp,%rbp
    399e:	48 83 ec 10          	sub    $0x10,%rsp
    39a2:	48 89 7d f8          	mov    %rdi,-0x8(%rbp)
    39a6:	48 8b 45 f8          	mov    -0x8(%rbp),%rax
    39aa:	48 c7 00 00 00 00 00 	movq   $0x0,(%rax)
    39b1:	48 c7 40 08 00 00 00 	movq   $0x0,0x8(%rax)
    39b8:	00 
    39b9:	48 c7 40 10 00 00 00 	movq   $0x0,0x10(%rax)
    39c0:	00 
    39c1:	48 c7 40 18 00 00 00 	movq   $0x0,0x18(%rax)
    39c8:	00 
    39c9:	48 c7 40 20 00 00 00 	movq   $0x0,0x20(%rax)
    39d0:	00 
    39d1:	48 c7 40 28 00 00 00 	movq   $0x0,0x28(%rax)
    39d8:	00 
    39d9:	48 c7 40 30 00 00 00 	movq   $0x0,0x30(%rax)
    39e0:	00 
    39e1:	48 c7 40 38 00 00 00 	movq   $0x0,0x38(%rax)
    39e8:	00 
    39e9:	48 c7 40 40 00 00 00 	movq   $0x0,0x40(%rax)
    39f0:	00 
    39f1:	48 c7 40 48 00 00 00 	movq   $0x0,0x48(%rax)
    39f8:	00 
    39f9:	48 8b 45 f8          	mov    -0x8(%rbp),%rax
    39fd:	48 89 c7             	mov    %rax,%rdi
    3a00:	e8 71 ff ff ff       	call   3976 <_ZNSt5dequeISt4pairIPciESaIS2_EEC1Ev>
    3a05:	90                   	nop
    3a06:	c9                   	leave  
    3a07:	c3                   	ret    

0000000000003a08 <_ZSt9make_pairIRPcRiESt4pairINSt25__strip_reference_wrapperINSt5decayIT_E4typeEE6__typeENS4_INS5_IT0_E4typeEE6__typeEEOS6_OSB_>:
    3a08:	f3 0f 1e fa          	endbr64 
    3a0c:	55                   	push   %rbp
    3a0d:	48 89 e5             	mov    %rsp,%rbp
    3a10:	53                   	push   %rbx
    3a11:	48 83 ec 38          	sub    $0x38,%rsp
    3a15:	48 89 7d c8          	mov    %rdi,-0x38(%rbp)
    3a19:	48 89 75 c0          	mov    %rsi,-0x40(%rbp)
    3a1d:	64 48 8b 04 25 28 00 	mov    %fs:0x28,%rax
    3a24:	00 00 
    3a26:	48 89 45 e8          	mov    %rax,-0x18(%rbp)
    3a2a:	31 c0                	xor    %eax,%eax
    3a2c:	48 8b 45 c0          	mov    -0x40(%rbp),%rax
    3a30:	48 89 c7             	mov    %rax,%rdi
    3a33:	e8 41 02 00 00       	call   3c79 <_ZSt7forwardIRiEOT_RNSt16remove_referenceIS1_E4typeE>
    3a38:	48 89 c3             	mov    %rax,%rbx
    3a3b:	48 8b 45 c8          	mov    -0x38(%rbp),%rax
    3a3f:	48 89 c7             	mov    %rax,%rdi
    3a42:	e8 20 02 00 00       	call   3c67 <_ZSt7forwardIRPcEOT_RNSt16remove_referenceIS2_E4typeE>
    3a47:	48 89 c1             	mov    %rax,%rcx
    3a4a:	48 8d 45 d0          	lea    -0x30(%rbp),%rax
    3a4e:	48 89 da             	mov    %rbx,%rdx
    3a51:	48 89 ce             	mov    %rcx,%rsi
    3a54:	48 89 c7             	mov    %rax,%rdi
    3a57:	e8 30 02 00 00       	call   3c8c <_ZNSt4pairIPciEC1IRS0_RiLb1EEEOT_OT0_>
    3a5c:	48 8b 45 d0          	mov    -0x30(%rbp),%rax
    3a60:	48 8b 55 d8          	mov    -0x28(%rbp),%rdx
    3a64:	48 8b 4d e8          	mov    -0x18(%rbp),%rcx
    3a68:	64 48 2b 0c 25 28 00 	sub    %fs:0x28,%rcx
    3a6f:	00 00 
    3a71:	74 05                	je     3a78 <_ZSt9make_pairIRPcRiESt4pairINSt25__strip_reference_wrapperINSt5decayIT_E4typeEE6__typeENS4_INS5_IT0_E4typeEE6__typeEEOS6_OSB_+0x70>
    3a73:	e8 d8 d7 ff ff       	call   1250 <__stack_chk_fail@plt>
    3a78:	48 8b 5d f8          	mov    -0x8(%rbp),%rbx
    3a7c:	c9                   	leave  
    3a7d:	c3                   	ret    

0000000000003a7e <_ZNSt5queueISt4pairIPciESt5dequeIS2_SaIS2_EEE4pushEOS2_>:
    3a7e:	f3 0f 1e fa          	endbr64 
    3a82:	55                   	push   %rbp
    3a83:	48 89 e5             	mov    %rsp,%rbp
    3a86:	53                   	push   %rbx
    3a87:	48 83 ec 18          	sub    $0x18,%rsp
    3a8b:	48 89 7d e8          	mov    %rdi,-0x18(%rbp)
    3a8f:	48 89 75 e0          	mov    %rsi,-0x20(%rbp)
    3a93:	48 8b 5d e8          	mov    -0x18(%rbp),%rbx
    3a97:	48 8b 45 e0          	mov    -0x20(%rbp),%rax
    3a9b:	48 89 c7             	mov    %rax,%rdi
    3a9e:	e8 2f 02 00 00       	call   3cd2 <_ZSt4moveIRSt4pairIPciEEONSt16remove_referenceIT_E4typeEOS5_>
    3aa3:	48 89 c6             	mov    %rax,%rsi
    3aa6:	48 89 df             	mov    %rbx,%rdi
    3aa9:	e8 36 02 00 00       	call   3ce4 <_ZNSt5dequeISt4pairIPciESaIS2_EE9push_backEOS2_>
    3aae:	90                   	nop
    3aaf:	48 8b 5d f8          	mov    -0x8(%rbp),%rbx
    3ab3:	c9                   	leave  
    3ab4:	c3                   	ret    
    3ab5:	90                   	nop

0000000000003ab6 <_ZNSt5queueISt4pairIPciESt5dequeIS2_SaIS2_EEE5frontEv>:
    3ab6:	f3 0f 1e fa          	endbr64 
    3aba:	55                   	push   %rbp
    3abb:	48 89 e5             	mov    %rsp,%rbp
    3abe:	48 83 ec 10          	sub    $0x10,%rsp
    3ac2:	48 89 7d f8          	mov    %rdi,-0x8(%rbp)
    3ac6:	48 8b 45 f8          	mov    -0x8(%rbp),%rax
    3aca:	48 89 c7             	mov    %rax,%rdi
    3acd:	e8 48 02 00 00       	call   3d1a <_ZNSt5dequeISt4pairIPciESaIS2_EE5frontEv>
    3ad2:	c9                   	leave  
    3ad3:	c3                   	ret    

0000000000003ad4 <_ZNSt5queueISt4pairIPciESt5dequeIS2_SaIS2_EEE3popEv>:
    3ad4:	f3 0f 1e fa          	endbr64 
    3ad8:	55                   	push   %rbp
    3ad9:	48 89 e5             	mov    %rsp,%rbp
    3adc:	48 83 ec 10          	sub    $0x10,%rsp
    3ae0:	48 89 7d f8          	mov    %rdi,-0x8(%rbp)
    3ae4:	48 8b 45 f8          	mov    -0x8(%rbp),%rax
    3ae8:	48 89 c7             	mov    %rax,%rdi
    3aeb:	e8 7e 02 00 00       	call   3d6e <_ZNSt5dequeISt4pairIPciESaIS2_EE9pop_frontEv>
    3af0:	90                   	nop
    3af1:	c9                   	leave  
    3af2:	c3                   	ret    
    3af3:	90                   	nop

0000000000003af4 <_ZNSt11_Deque_baseISt4pairIPciESaIS2_EE11_Deque_implD1Ev>:
    3af4:	f3 0f 1e fa          	endbr64 
    3af8:	55                   	push   %rbp
    3af9:	48 89 e5             	mov    %rsp,%rbp
    3afc:	48 83 ec 10          	sub    $0x10,%rsp
    3b00:	48 89 7d f8          	mov    %rdi,-0x8(%rbp)
    3b04:	48 8b 45 f8          	mov    -0x8(%rbp),%rax
    3b08:	48 89 c7             	mov    %rax,%rdi
    3b0b:	e8 fc 02 00 00       	call   3e0c <_ZNSaISt4pairIPciEED1Ev>
    3b10:	90                   	nop
    3b11:	c9                   	leave  
    3b12:	c3                   	ret    
    3b13:	90                   	nop

0000000000003b14 <_ZNSt11_Deque_baseISt4pairIPciESaIS2_EEC1Ev>:
    3b14:	f3 0f 1e fa          	endbr64 
    3b18:	55                   	push   %rbp
    3b19:	48 89 e5             	mov    %rsp,%rbp
    3b1c:	53                   	push   %rbx
    3b1d:	48 83 ec 18          	sub    $0x18,%rsp
    3b21:	48 89 7d e8          	mov    %rdi,-0x18(%rbp)
    3b25:	48 8b 45 e8          	mov    -0x18(%rbp),%rax
    3b29:	48 89 c7             	mov    %rax,%rdi
    3b2c:	e8 af 02 00 00       	call   3de0 <_ZNSt11_Deque_baseISt4pairIPciESaIS2_EE11_Deque_implC1Ev>
    3b31:	48 8b 45 e8          	mov    -0x18(%rbp),%rax
    3b35:	be 00 00 00 00       	mov    $0x0,%esi
    3b3a:	48 89 c7             	mov    %rax,%rdi
    3b3d:	e8 ea 02 00 00       	call   3e2c <_ZNSt11_Deque_baseISt4pairIPciESaIS2_EE17_M_initialize_mapEm>
    3b42:	eb 1e                	jmp    3b62 <_ZNSt11_Deque_baseISt4pairIPciESaIS2_EEC1Ev+0x4e>
    3b44:	f3 0f 1e fa          	endbr64 
    3b48:	48 89 c3             	mov    %rax,%rbx
    3b4b:	48 8b 45 e8          	mov    -0x18(%rbp),%rax
    3b4f:	48 89 c7             	mov    %rax,%rdi
    3b52:	e8 9d ff ff ff       	call   3af4 <_ZNSt11_Deque_baseISt4pairIPciESaIS2_EE11_Deque_implD1Ev>
    3b57:	48 89 d8             	mov    %rbx,%rax
    3b5a:	48 89 c7             	mov    %rax,%rdi
    3b5d:	e8 8e d7 ff ff       	call   12f0 <_Unwind_Resume@plt>
    3b62:	48 8b 5d f8          	mov    -0x8(%rbp),%rbx
    3b66:	c9                   	leave  
    3b67:	c3                   	ret    

0000000000003b68 <_ZNSt11_Deque_baseISt4pairIPciESaIS2_EED1Ev>:
    3b68:	f3 0f 1e fa          	endbr64 
    3b6c:	55                   	push   %rbp
    3b6d:	48 89 e5             	mov    %rsp,%rbp
    3b70:	48 83 ec 10          	sub    $0x10,%rsp
    3b74:	48 89 7d f8          	mov    %rdi,-0x8(%rbp)
    3b78:	48 8b 45 f8          	mov    -0x8(%rbp),%rax
    3b7c:	48 8b 00             	mov    (%rax),%rax
    3b7f:	48 85 c0             	test   %rax,%rax
    3b82:	74 41                	je     3bc5 <_ZNSt11_Deque_baseISt4pairIPciESaIS2_EED1Ev+0x5d>
    3b84:	48 8b 45 f8          	mov    -0x8(%rbp),%rax
    3b88:	48 8b 40 48          	mov    0x48(%rax),%rax
    3b8c:	48 8d 50 08          	lea    0x8(%rax),%rdx
    3b90:	48 8b 45 f8          	mov    -0x8(%rbp),%rax
    3b94:	48 8b 48 28          	mov    0x28(%rax),%rcx
    3b98:	48 8b 45 f8          	mov    -0x8(%rbp),%rax
    3b9c:	48 89 ce             	mov    %rcx,%rsi
    3b9f:	48 89 c7             	mov    %rax,%rdi
    3ba2:	e8 5d 04 00 00       	call   4004 <_ZNSt11_Deque_baseISt4pairIPciESaIS2_EE16_M_destroy_nodesEPPS2_S6_>
    3ba7:	48 8b 45 f8          	mov    -0x8(%rbp),%rax
    3bab:	48 8b 50 08          	mov    0x8(%rax),%rdx
    3baf:	48 8b 45 f8          	mov    -0x8(%rbp),%rax
    3bb3:	48 8b 08             	mov    (%rax),%rcx
    3bb6:	48 8b 45 f8          	mov    -0x8(%rbp),%rax
    3bba:	48 89 ce             	mov    %rcx,%rsi
    3bbd:	48 89 c7             	mov    %rax,%rdi
    3bc0:	e8 8b 04 00 00       	call   4050 <_ZNSt11_Deque_baseISt4pairIPciESaIS2_EE17_M_deallocate_mapEPPS2_m>
    3bc5:	48 8b 45 f8          	mov    -0x8(%rbp),%rax
    3bc9:	48 89 c7             	mov    %rax,%rdi
    3bcc:	e8 23 ff ff ff       	call   3af4 <_ZNSt11_Deque_baseISt4pairIPciESaIS2_EE11_Deque_implD1Ev>
    3bd1:	90                   	nop
    3bd2:	c9                   	leave  
    3bd3:	c3                   	ret    

0000000000003bd4 <_ZNSt5dequeISt4pairIPciESaIS2_EED1Ev>:
    3bd4:	f3 0f 1e fa          	endbr64 
    3bd8:	55                   	push   %rbp
    3bd9:	48 89 e5             	mov    %rsp,%rbp
    3bdc:	53                   	push   %rbx
    3bdd:	48 83 ec 68          	sub    $0x68,%rsp
    3be1:	48 89 7d 98          	mov    %rdi,-0x68(%rbp)
    3be5:	64 48 8b 04 25 28 00 	mov    %fs:0x28,%rax
    3bec:	00 00 
    3bee:	48 89 45 e8          	mov    %rax,-0x18(%rbp)
    3bf2:	31 c0                	xor    %eax,%eax
    3bf4:	48 8b 45 98          	mov    -0x68(%rbp),%rax
    3bf8:	48 89 c7             	mov    %rax,%rdi
    3bfb:	e8 28 05 00 00       	call   4128 <_ZNSt11_Deque_baseISt4pairIPciESaIS2_EE19_M_get_Tp_allocatorEv>
    3c00:	48 89 c3             	mov    %rax,%rbx
    3c03:	48 8d 45 c0          	lea    -0x40(%rbp),%rax
    3c07:	48 8b 55 98          	mov    -0x68(%rbp),%rdx
    3c0b:	48 89 d6             	mov    %rdx,%rsi
    3c0e:	48 89 c7             	mov    %rax,%rdi
    3c11:	e8 e0 04 00 00       	call   40f6 <_ZNSt5dequeISt4pairIPciESaIS2_EE3endEv>
    3c16:	48 8d 45 a0          	lea    -0x60(%rbp),%rax
    3c1a:	48 8b 55 98          	mov    -0x68(%rbp),%rdx
    3c1e:	48 89 d6             	mov    %rdx,%rsi
    3c21:	48 89 c7             	mov    %rax,%rdi
    3c24:	e8 9b 04 00 00       	call   40c4 <_ZNSt5dequeISt4pairIPciESaIS2_EE5beginEv>
    3c29:	48 8d 55 c0          	lea    -0x40(%rbp),%rdx
    3c2d:	48 8d 75 a0          	lea    -0x60(%rbp),%rsi
    3c31:	48 8b 45 98          	mov    -0x68(%rbp),%rax
    3c35:	48 89 d9             	mov    %rbx,%rcx
    3c38:	48 89 c7             	mov    %rax,%rdi
    3c3b:	e8 fa 04 00 00       	call   413a <_ZNSt5dequeISt4pairIPciESaIS2_EE15_M_destroy_dataESt15_Deque_iteratorIS2_RS2_PS2_ES8_RKS3_>
    3c40:	48 8b 45 98          	mov    -0x68(%rbp),%rax
    3c44:	48 89 c7             	mov    %rax,%rdi
    3c47:	e8 1c ff ff ff       	call   3b68 <_ZNSt11_Deque_baseISt4pairIPciESaIS2_EED1Ev>
    3c4c:	90                   	nop
    3c4d:	48 8b 45 e8          	mov    -0x18(%rbp),%rax
    3c51:	64 48 2b 04 25 28 00 	sub    %fs:0x28,%rax
    3c58:	00 00 
    3c5a:	74 05                	je     3c61 <_ZNSt5dequeISt4pairIPciESaIS2_EED1Ev+0x8d>
    3c5c:	e8 ef d5 ff ff       	call   1250 <__stack_chk_fail@plt>
    3c61:	48 8b 5d f8          	mov    -0x8(%rbp),%rbx
    3c65:	c9                   	leave  
    3c66:	c3                   	ret    

0000000000003c67 <_ZSt7forwardIRPcEOT_RNSt16remove_referenceIS2_E4typeE>:
    3c67:	f3 0f 1e fa          	endbr64 
    3c6b:	55                   	push   %rbp
    3c6c:	48 89 e5             	mov    %rsp,%rbp
    3c6f:	48 89 7d f8          	mov    %rdi,-0x8(%rbp)
    3c73:	48 8b 45 f8          	mov    -0x8(%rbp),%rax
    3c77:	5d                   	pop    %rbp
    3c78:	c3                   	ret    

0000000000003c79 <_ZSt7forwardIRiEOT_RNSt16remove_referenceIS1_E4typeE>:
    3c79:	f3 0f 1e fa          	endbr64 
    3c7d:	55                   	push   %rbp
    3c7e:	48 89 e5             	mov    %rsp,%rbp
    3c81:	48 89 7d f8          	mov    %rdi,-0x8(%rbp)
    3c85:	48 8b 45 f8          	mov    -0x8(%rbp),%rax
    3c89:	5d                   	pop    %rbp
    3c8a:	c3                   	ret    
    3c8b:	90                   	nop

0000000000003c8c <_ZNSt4pairIPciEC1IRS0_RiLb1EEEOT_OT0_>:
    3c8c:	f3 0f 1e fa          	endbr64 
    3c90:	55                   	push   %rbp
    3c91:	48 89 e5             	mov    %rsp,%rbp
    3c94:	48 83 ec 20          	sub    $0x20,%rsp
    3c98:	48 89 7d f8          	mov    %rdi,-0x8(%rbp)
    3c9c:	48 89 75 f0          	mov    %rsi,-0x10(%rbp)
    3ca0:	48 89 55 e8          	mov    %rdx,-0x18(%rbp)
    3ca4:	48 8b 45 f0          	mov    -0x10(%rbp),%rax
    3ca8:	48 89 c7             	mov    %rax,%rdi
    3cab:	e8 b7 ff ff ff       	call   3c67 <_ZSt7forwardIRPcEOT_RNSt16remove_referenceIS2_E4typeE>
    3cb0:	48 8b 10             	mov    (%rax),%rdx
    3cb3:	48 8b 45 f8          	mov    -0x8(%rbp),%rax
    3cb7:	48 89 10             	mov    %rdx,(%rax)
    3cba:	48 8b 45 e8          	mov    -0x18(%rbp),%rax
    3cbe:	48 89 c7             	mov    %rax,%rdi
    3cc1:	e8 b3 ff ff ff       	call   3c79 <_ZSt7forwardIRiEOT_RNSt16remove_referenceIS1_E4typeE>
    3cc6:	8b 10                	mov    (%rax),%edx
    3cc8:	48 8b 45 f8          	mov    -0x8(%rbp),%rax
    3ccc:	89 50 08             	mov    %edx,0x8(%rax)
    3ccf:	90                   	nop
    3cd0:	c9                   	leave  
    3cd1:	c3                   	ret    

0000000000003cd2 <_ZSt4moveIRSt4pairIPciEEONSt16remove_referenceIT_E4typeEOS5_>:
    3cd2:	f3 0f 1e fa          	endbr64 
    3cd6:	55                   	push   %rbp
    3cd7:	48 89 e5             	mov    %rsp,%rbp
    3cda:	48 89 7d f8          	mov    %rdi,-0x8(%rbp)
    3cde:	48 8b 45 f8          	mov    -0x8(%rbp),%rax
    3ce2:	5d                   	pop    %rbp
    3ce3:	c3                   	ret    

0000000000003ce4 <_ZNSt5dequeISt4pairIPciESaIS2_EE9push_backEOS2_>:
    3ce4:	f3 0f 1e fa          	endbr64 
    3ce8:	55                   	push   %rbp
    3ce9:	48 89 e5             	mov    %rsp,%rbp
    3cec:	48 83 ec 10          	sub    $0x10,%rsp
    3cf0:	48 89 7d f8          	mov    %rdi,-0x8(%rbp)
    3cf4:	48 89 75 f0          	mov    %rsi,-0x10(%rbp)
    3cf8:	48 8b 45 f0          	mov    -0x10(%rbp),%rax
    3cfc:	48 89 c7             	mov    %rax,%rdi
    3cff:	e8 ce ff ff ff       	call   3cd2 <_ZSt4moveIRSt4pairIPciEEONSt16remove_referenceIT_E4typeEOS5_>
    3d04:	48 89 c2             	mov    %rax,%rdx
    3d07:	48 8b 45 f8          	mov    -0x8(%rbp),%rax
    3d0b:	48 89 d6             	mov    %rdx,%rsi
    3d0e:	48 89 c7             	mov    %rax,%rdi
    3d11:	e8 66 04 00 00       	call   417c <_ZNSt5dequeISt4pairIPciESaIS2_EE12emplace_backIJS2_EEERS2_DpOT_>
    3d16:	90                   	nop
    3d17:	c9                   	leave  
    3d18:	c3                   	ret    
    3d19:	90                   	nop

0000000000003d1a <_ZNSt5dequeISt4pairIPciESaIS2_EE5frontEv>:
    3d1a:	f3 0f 1e fa          	endbr64 
    3d1e:	55                   	push   %rbp
    3d1f:	48 89 e5             	mov    %rsp,%rbp
    3d22:	48 83 ec 40          	sub    $0x40,%rsp
    3d26:	48 89 7d c8          	mov    %rdi,-0x38(%rbp)
    3d2a:	64 48 8b 04 25 28 00 	mov    %fs:0x28,%rax
    3d31:	00 00 
    3d33:	48 89 45 f8          	mov    %rax,-0x8(%rbp)
    3d37:	31 c0                	xor    %eax,%eax
    3d39:	48 8d 45 d0          	lea    -0x30(%rbp),%rax
    3d3d:	48 8b 55 c8          	mov    -0x38(%rbp),%rdx
    3d41:	48 89 d6             	mov    %rdx,%rsi
    3d44:	48 89 c7             	mov    %rax,%rdi
    3d47:	e8 78 03 00 00       	call   40c4 <_ZNSt5dequeISt4pairIPciESaIS2_EE5beginEv>
    3d4c:	48 8d 45 d0          	lea    -0x30(%rbp),%rax
    3d50:	48 89 c7             	mov    %rax,%rdi
    3d53:	e8 ba 04 00 00       	call   4212 <_ZNKSt15_Deque_iteratorISt4pairIPciERS2_PS2_EdeEv>
    3d58:	48 8b 55 f8          	mov    -0x8(%rbp),%rdx
    3d5c:	64 48 2b 14 25 28 00 	sub    %fs:0x28,%rdx
    3d63:	00 00 
    3d65:	74 05                	je     3d6c <_ZNSt5dequeISt4pairIPciESaIS2_EE5frontEv+0x52>
    3d67:	e8 e4 d4 ff ff       	call   1250 <__stack_chk_fail@plt>
    3d6c:	c9                   	leave  
    3d6d:	c3                   	ret    

0000000000003d6e <_ZNSt5dequeISt4pairIPciESaIS2_EE9pop_frontEv>:
    3d6e:	f3 0f 1e fa          	endbr64 
    3d72:	55                   	push   %rbp
    3d73:	48 89 e5             	mov    %rsp,%rbp
    3d76:	53                   	push   %rbx
    3d77:	48 83 ec 18          	sub    $0x18,%rsp
    3d7b:	48 89 7d e8          	mov    %rdi,-0x18(%rbp)
    3d7f:	48 8b 45 e8          	mov    -0x18(%rbp),%rax
    3d83:	48 8b 50 10          	mov    0x10(%rax),%rdx
    3d87:	48 8b 45 e8          	mov    -0x18(%rbp),%rax
    3d8b:	48 8b 40 20          	mov    0x20(%rax),%rax
    3d8f:	48 83 e8 10          	sub    $0x10,%rax
    3d93:	48 39 c2             	cmp    %rax,%rdx
    3d96:	74 35                	je     3dcd <_ZNSt5dequeISt4pairIPciESaIS2_EE9pop_frontEv+0x5f>
    3d98:	48 8b 45 e8          	mov    -0x18(%rbp),%rax
    3d9c:	48 8b 58 10          	mov    0x10(%rax),%rbx
    3da0:	48 8b 45 e8          	mov    -0x18(%rbp),%rax
    3da4:	48 89 c7             	mov    %rax,%rdi
    3da7:	e8 7c 03 00 00       	call   4128 <_ZNSt11_Deque_baseISt4pairIPciESaIS2_EE19_M_get_Tp_allocatorEv>
    3dac:	48 89 de             	mov    %rbx,%rsi
    3daf:	48 89 c7             	mov    %rax,%rdi
    3db2:	e8 70 04 00 00       	call   4227 <_ZNSt16allocator_traitsISaISt4pairIPciEEE7destroyIS2_EEvRS3_PT_>
    3db7:	48 8b 45 e8          	mov    -0x18(%rbp),%rax
    3dbb:	48 8b 40 10          	mov    0x10(%rax),%rax
    3dbf:	48 8d 50 10          	lea    0x10(%rax),%rdx
    3dc3:	48 8b 45 e8          	mov    -0x18(%rbp),%rax
    3dc7:	48 89 50 10          	mov    %rdx,0x10(%rax)
    3dcb:	eb 0c                	jmp    3dd9 <_ZNSt5dequeISt4pairIPciESaIS2_EE9pop_frontEv+0x6b>
    3dcd:	48 8b 45 e8          	mov    -0x18(%rbp),%rax
    3dd1:	48 89 c7             	mov    %rax,%rdi
    3dd4:	e8 79 04 00 00       	call   4252 <_ZNSt5dequeISt4pairIPciESaIS2_EE16_M_pop_front_auxEv>
    3dd9:	90                   	nop
    3dda:	48 8b 5d f8          	mov    -0x8(%rbp),%rbx
    3dde:	c9                   	leave  
    3ddf:	c3                   	ret    

0000000000003de0 <_ZNSt11_Deque_baseISt4pairIPciESaIS2_EE11_Deque_implC1Ev>:
    3de0:	f3 0f 1e fa          	endbr64 
    3de4:	55                   	push   %rbp
    3de5:	48 89 e5             	mov    %rsp,%rbp
    3de8:	48 83 ec 10          	sub    $0x10,%rsp
    3dec:	48 89 7d f8          	mov    %rdi,-0x8(%rbp)
    3df0:	48 8b 45 f8          	mov    -0x8(%rbp),%rax
    3df4:	48 89 c7             	mov    %rax,%rdi
    3df7:	e8 d4 04 00 00       	call   42d0 <_ZNSaISt4pairIPciEEC1Ev>
    3dfc:	48 8b 45 f8          	mov    -0x8(%rbp),%rax
    3e00:	48 89 c7             	mov    %rax,%rdi
    3e03:	e8 e8 04 00 00       	call   42f0 <_ZNSt11_Deque_baseISt4pairIPciESaIS2_EE16_Deque_impl_dataC1Ev>
    3e08:	90                   	nop
    3e09:	c9                   	leave  
    3e0a:	c3                   	ret    
    3e0b:	90                   	nop

0000000000003e0c <_ZNSaISt4pairIPciEED1Ev>:
    3e0c:	f3 0f 1e fa          	endbr64 
    3e10:	55                   	push   %rbp
    3e11:	48 89 e5             	mov    %rsp,%rbp
    3e14:	48 83 ec 10          	sub    $0x10,%rsp
    3e18:	48 89 7d f8          	mov    %rdi,-0x8(%rbp)
    3e1c:	48 8b 45 f8          	mov    -0x8(%rbp),%rax
    3e20:	48 89 c7             	mov    %rax,%rdi
    3e23:	e8 12 05 00 00       	call   433a <_ZN9__gnu_cxx13new_allocatorISt4pairIPciEED1Ev>
    3e28:	90                   	nop
    3e29:	c9                   	leave  
    3e2a:	c3                   	ret    
    3e2b:	90                   	nop

0000000000003e2c <_ZNSt11_Deque_baseISt4pairIPciESaIS2_EE17_M_initialize_mapEm>:
    3e2c:	f3 0f 1e fa          	endbr64 
    3e30:	55                   	push   %rbp
    3e31:	48 89 e5             	mov    %rsp,%rbp
    3e34:	53                   	push   %rbx
    3e35:	48 83 ec 48          	sub    $0x48,%rsp
    3e39:	48 89 7d b8          	mov    %rdi,-0x48(%rbp)
    3e3d:	48 89 75 b0          	mov    %rsi,-0x50(%rbp)
    3e41:	64 48 8b 04 25 28 00 	mov    %fs:0x28,%rax
    3e48:	00 00 
    3e4a:	48 89 45 e8          	mov    %rax,-0x18(%rbp)
    3e4e:	31 c0                	xor    %eax,%eax
    3e50:	bf 10 00 00 00       	mov    $0x10,%edi
    3e55:	e8 ef fa ff ff       	call   3949 <_ZSt16__deque_buf_sizem>
    3e5a:	48 89 c3             	mov    %rax,%rbx
    3e5d:	48 8b 45 b0          	mov    -0x50(%rbp),%rax
    3e61:	ba 00 00 00 00       	mov    $0x0,%edx
    3e66:	48 f7 f3             	div    %rbx
    3e69:	48 83 c0 01          	add    $0x1,%rax
    3e6d:	48 89 45 d0          	mov    %rax,-0x30(%rbp)
    3e71:	48 8b 45 d0          	mov    -0x30(%rbp),%rax
    3e75:	48 83 c0 02          	add    $0x2,%rax
    3e79:	48 89 45 c8          	mov    %rax,-0x38(%rbp)
    3e7d:	48 c7 45 c0 08 00 00 	movq   $0x8,-0x40(%rbp)
    3e84:	00 
    3e85:	48 8d 55 c8          	lea    -0x38(%rbp),%rdx
    3e89:	48 8d 45 c0          	lea    -0x40(%rbp),%rax
    3e8d:	48 89 d6             	mov    %rdx,%rsi
    3e90:	48 89 c7             	mov    %rax,%rdi
    3e93:	e8 b1 04 00 00       	call   4349 <_ZSt3maxImERKT_S2_S2_>
    3e98:	48 8b 10             	mov    (%rax),%rdx
    3e9b:	48 8b 45 b8          	mov    -0x48(%rbp),%rax
    3e9f:	48 89 50 08          	mov    %rdx,0x8(%rax)
    3ea3:	48 8b 45 b8          	mov    -0x48(%rbp),%rax
    3ea7:	48 8b 50 08          	mov    0x8(%rax),%rdx
    3eab:	48 8b 45 b8          	mov    -0x48(%rbp),%rax
    3eaf:	48 89 d6             	mov    %rdx,%rsi
    3eb2:	48 89 c7             	mov    %rax,%rdi
    3eb5:	e8 be 04 00 00       	call   4378 <_ZNSt11_Deque_baseISt4pairIPciESaIS2_EE15_M_allocate_mapEm>
    3eba:	48 8b 55 b8          	mov    -0x48(%rbp),%rdx
    3ebe:	48 89 02             	mov    %rax,(%rdx)
    3ec1:	48 8b 45 b8          	mov    -0x48(%rbp),%rax
    3ec5:	48 8b 10             	mov    (%rax),%rdx
    3ec8:	48 8b 45 b8          	mov    -0x48(%rbp),%rax
    3ecc:	48 8b 40 08          	mov    0x8(%rax),%rax
    3ed0:	48 2b 45 d0          	sub    -0x30(%rbp),%rax
    3ed4:	48 d1 e8             	shr    %rax
    3ed7:	48 c1 e0 03          	shl    $0x3,%rax
    3edb:	48 01 d0             	add    %rdx,%rax
    3ede:	48 89 45 d8          	mov    %rax,-0x28(%rbp)
    3ee2:	48 8b 45 d0          	mov    -0x30(%rbp),%rax
    3ee6:	48 8d 14 c5 00 00 00 	lea    0x0(,%rax,8),%rdx
    3eed:	00 
    3eee:	48 8b 45 d8          	mov    -0x28(%rbp),%rax
    3ef2:	48 01 d0             	add    %rdx,%rax
    3ef5:	48 89 45 e0          	mov    %rax,-0x20(%rbp)
    3ef9:	48 8b 55 e0          	mov    -0x20(%rbp),%rdx
    3efd:	48 8b 4d d8          	mov    -0x28(%rbp),%rcx
    3f01:	48 8b 45 b8          	mov    -0x48(%rbp),%rax
    3f05:	48 89 ce             	mov    %rcx,%rsi
    3f08:	48 89 c7             	mov    %rax,%rdi
    3f0b:	e8 00 05 00 00       	call   4410 <_ZNSt11_Deque_baseISt4pairIPciESaIS2_EE15_M_create_nodesEPPS2_S6_>
    3f10:	48 8b 45 b8          	mov    -0x48(%rbp),%rax
    3f14:	48 8d 50 10          	lea    0x10(%rax),%rdx
    3f18:	48 8b 45 d8          	mov    -0x28(%rbp),%rax
    3f1c:	48 89 c6             	mov    %rax,%rsi
    3f1f:	48 89 d7             	mov    %rdx,%rdi
    3f22:	e8 75 05 00 00       	call   449c <_ZNSt15_Deque_iteratorISt4pairIPciERS2_PS2_E11_M_set_nodeEPS4_>
    3f27:	48 8b 45 b8          	mov    -0x48(%rbp),%rax
    3f2b:	48 83 c0 30          	add    $0x30,%rax
    3f2f:	48 8b 55 e0          	mov    -0x20(%rbp),%rdx
    3f33:	48 83 ea 08          	sub    $0x8,%rdx
    3f37:	48 89 d6             	mov    %rdx,%rsi
    3f3a:	48 89 c7             	mov    %rax,%rdi
    3f3d:	e8 5a 05 00 00       	call   449c <_ZNSt15_Deque_iteratorISt4pairIPciERS2_PS2_E11_M_set_nodeEPS4_>
    3f42:	48 8b 45 b8          	mov    -0x48(%rbp),%rax
    3f46:	48 8b 50 18          	mov    0x18(%rax),%rdx
    3f4a:	48 8b 45 b8          	mov    -0x48(%rbp),%rax
    3f4e:	48 89 50 10          	mov    %rdx,0x10(%rax)
    3f52:	48 8b 45 b8          	mov    -0x48(%rbp),%rax
    3f56:	48 8b 58 38          	mov    0x38(%rax),%rbx
    3f5a:	bf 10 00 00 00       	mov    $0x10,%edi
    3f5f:	e8 e5 f9 ff ff       	call   3949 <_ZSt16__deque_buf_sizem>
    3f64:	48 89 c1             	mov    %rax,%rcx
    3f67:	48 8b 45 b0          	mov    -0x50(%rbp),%rax
    3f6b:	ba 00 00 00 00       	mov    $0x0,%edx
    3f70:	48 f7 f1             	div    %rcx
    3f73:	48 89 d1             	mov    %rdx,%rcx
    3f76:	48 89 c8             	mov    %rcx,%rax
    3f79:	48 c1 e0 04          	shl    $0x4,%rax
    3f7d:	48 8d 14 03          	lea    (%rbx,%rax,1),%rdx
    3f81:	48 8b 45 b8          	mov    -0x48(%rbp),%rax
    3f85:	48 89 50 30          	mov    %rdx,0x30(%rax)
    3f89:	90                   	nop
    3f8a:	48 8b 45 e8          	mov    -0x18(%rbp),%rax
    3f8e:	64 48 2b 04 25 28 00 	sub    %fs:0x28,%rax
    3f95:	00 00 
    3f97:	74 64                	je     3ffd <_ZNSt11_Deque_baseISt4pairIPciESaIS2_EE17_M_initialize_mapEm+0x1d1>
    3f99:	eb 5d                	jmp    3ff8 <_ZNSt11_Deque_baseISt4pairIPciESaIS2_EE17_M_initialize_mapEm+0x1cc>
    3f9b:	f3 0f 1e fa          	endbr64 
    3f9f:	48 89 c7             	mov    %rax,%rdi
    3fa2:	e8 29 d2 ff ff       	call   11d0 <__cxa_begin_catch@plt>
    3fa7:	48 8b 45 b8          	mov    -0x48(%rbp),%rax
    3fab:	48 8b 50 08          	mov    0x8(%rax),%rdx
    3faf:	48 8b 45 b8          	mov    -0x48(%rbp),%rax
    3fb3:	48 8b 08             	mov    (%rax),%rcx
    3fb6:	48 8b 45 b8          	mov    -0x48(%rbp),%rax
    3fba:	48 89 ce             	mov    %rcx,%rsi
    3fbd:	48 89 c7             	mov    %rax,%rdi
    3fc0:	e8 8b 00 00 00       	call   4050 <_ZNSt11_Deque_baseISt4pairIPciESaIS2_EE17_M_deallocate_mapEPPS2_m>
    3fc5:	48 8b 45 b8          	mov    -0x48(%rbp),%rax
    3fc9:	48 c7 00 00 00 00 00 	movq   $0x0,(%rax)
    3fd0:	48 8b 45 b8          	mov    -0x48(%rbp),%rax
    3fd4:	48 c7 40 08 00 00 00 	movq   $0x0,0x8(%rax)
    3fdb:	00 
    3fdc:	e8 bf d2 ff ff       	call   12a0 <__cxa_rethrow@plt>
    3fe1:	f3 0f 1e fa          	endbr64 
    3fe5:	48 89 c3             	mov    %rax,%rbx
    3fe8:	e8 f3 d2 ff ff       	call   12e0 <__cxa_end_catch@plt>
    3fed:	48 89 d8             	mov    %rbx,%rax
    3ff0:	48 89 c7             	mov    %rax,%rdi
    3ff3:	e8 f8 d2 ff ff       	call   12f0 <_Unwind_Resume@plt>
    3ff8:	e8 53 d2 ff ff       	call   1250 <__stack_chk_fail@plt>
    3ffd:	48 8b 5d f8          	mov    -0x8(%rbp),%rbx
    4001:	c9                   	leave  
    4002:	c3                   	ret    
    4003:	90                   	nop

0000000000004004 <_ZNSt11_Deque_baseISt4pairIPciESaIS2_EE16_M_destroy_nodesEPPS2_S6_>:
    4004:	f3 0f 1e fa          	endbr64 
    4008:	55                   	push   %rbp
    4009:	48 89 e5             	mov    %rsp,%rbp
    400c:	48 83 ec 30          	sub    $0x30,%rsp
    4010:	48 89 7d e8          	mov    %rdi,-0x18(%rbp)
    4014:	48 89 75 e0          	mov    %rsi,-0x20(%rbp)
    4018:	48 89 55 d8          	mov    %rdx,-0x28(%rbp)
    401c:	48 8b 45 e0          	mov    -0x20(%rbp),%rax
    4020:	48 89 45 f8          	mov    %rax,-0x8(%rbp)
    4024:	eb 1b                	jmp    4041 <_ZNSt11_Deque_baseISt4pairIPciESaIS2_EE16_M_destroy_nodesEPPS2_S6_+0x3d>
    4026:	48 8b 45 f8          	mov    -0x8(%rbp),%rax
    402a:	48 8b 10             	mov    (%rax),%rdx
    402d:	48 8b 45 e8          	mov    -0x18(%rbp),%rax
    4031:	48 89 d6             	mov    %rdx,%rsi
    4034:	48 89 c7             	mov    %rax,%rdi
    4037:	e8 b4 04 00 00       	call   44f0 <_ZNSt11_Deque_baseISt4pairIPciESaIS2_EE18_M_deallocate_nodeEPS2_>
    403c:	48 83 45 f8 08       	addq   $0x8,-0x8(%rbp)
    4041:	48 8b 45 f8          	mov    -0x8(%rbp),%rax
    4045:	48 3b 45 d8          	cmp    -0x28(%rbp),%rax
    4049:	72 db                	jb     4026 <_ZNSt11_Deque_baseISt4pairIPciESaIS2_EE16_M_destroy_nodesEPPS2_S6_+0x22>
    404b:	90                   	nop
    404c:	90                   	nop
    404d:	c9                   	leave  
    404e:	c3                   	ret    
    404f:	90                   	nop

0000000000004050 <_ZNSt11_Deque_baseISt4pairIPciESaIS2_EE17_M_deallocate_mapEPPS2_m>:
    4050:	f3 0f 1e fa          	endbr64 
    4054:	55                   	push   %rbp
    4055:	48 89 e5             	mov    %rsp,%rbp
    4058:	48 83 ec 30          	sub    $0x30,%rsp
    405c:	48 89 7d e8          	mov    %rdi,-0x18(%rbp)
    4060:	48 89 75 e0          	mov    %rsi,-0x20(%rbp)
    4064:	48 89 55 d8          	mov    %rdx,-0x28(%rbp)
    4068:	64 48 8b 04 25 28 00 	mov    %fs:0x28,%rax
    406f:	00 00 
    4071:	48 89 45 f8          	mov    %rax,-0x8(%rbp)
    4075:	31 c0                	xor    %eax,%eax
    4077:	48 8d 45 f7          	lea    -0x9(%rbp),%rax
    407b:	48 8b 55 e8          	mov    -0x18(%rbp),%rdx
    407f:	48 89 d6             	mov    %rdx,%rsi
    4082:	48 89 c7             	mov    %rax,%rdi
    4085:	e8 9e 04 00 00       	call   4528 <_ZNKSt11_Deque_baseISt4pairIPciESaIS2_EE20_M_get_map_allocatorEv>
    408a:	48 8b 55 d8          	mov    -0x28(%rbp),%rdx
    408e:	48 8b 4d e0          	mov    -0x20(%rbp),%rcx
    4092:	48 8d 45 f7          	lea    -0x9(%rbp),%rax
    4096:	48 89 ce             	mov    %rcx,%rsi
    4099:	48 89 c7             	mov    %rax,%rdi
    409c:	e8 de 04 00 00       	call   457f <_ZNSt16allocator_traitsISaIPSt4pairIPciEEE10deallocateERS4_PS3_m>
    40a1:	48 8d 45 f7          	lea    -0x9(%rbp),%rax
    40a5:	48 89 c7             	mov    %rax,%rdi
    40a8:	e8 b3 04 00 00       	call   4560 <_ZNSaIPSt4pairIPciEED1Ev>
    40ad:	48 8b 45 f8          	mov    -0x8(%rbp),%rax
    40b1:	64 48 2b 04 25 28 00 	sub    %fs:0x28,%rax
    40b8:	00 00 
    40ba:	74 05                	je     40c1 <_ZNSt11_Deque_baseISt4pairIPciESaIS2_EE17_M_deallocate_mapEPPS2_m+0x71>
    40bc:	e8 8f d1 ff ff       	call   1250 <__stack_chk_fail@plt>
    40c1:	c9                   	leave  
    40c2:	c3                   	ret    
    40c3:	90                   	nop

00000000000040c4 <_ZNSt5dequeISt4pairIPciESaIS2_EE5beginEv>:
    40c4:	f3 0f 1e fa          	endbr64 
    40c8:	55                   	push   %rbp
    40c9:	48 89 e5             	mov    %rsp,%rbp
    40cc:	48 83 ec 10          	sub    $0x10,%rsp
    40d0:	48 89 7d f8          	mov    %rdi,-0x8(%rbp)
    40d4:	48 89 75 f0          	mov    %rsi,-0x10(%rbp)
    40d8:	48 8b 45 f0          	mov    -0x10(%rbp),%rax
    40dc:	48 8d 50 10          	lea    0x10(%rax),%rdx
    40e0:	48 8b 45 f8          	mov    -0x8(%rbp),%rax
    40e4:	48 89 d6             	mov    %rdx,%rsi
    40e7:	48 89 c7             	mov    %rax,%rdi
    40ea:	e8 c3 04 00 00       	call   45b2 <_ZNSt15_Deque_iteratorISt4pairIPciERS2_PS2_EC1ERKS5_>
    40ef:	48 8b 45 f8          	mov    -0x8(%rbp),%rax
    40f3:	c9                   	leave  
    40f4:	c3                   	ret    
    40f5:	90                   	nop

00000000000040f6 <_ZNSt5dequeISt4pairIPciESaIS2_EE3endEv>:
    40f6:	f3 0f 1e fa          	endbr64 
    40fa:	55                   	push   %rbp
    40fb:	48 89 e5             	mov    %rsp,%rbp
    40fe:	48 83 ec 10          	sub    $0x10,%rsp
    4102:	48 89 7d f8          	mov    %rdi,-0x8(%rbp)
    4106:	48 89 75 f0          	mov    %rsi,-0x10(%rbp)
    410a:	48 8b 45 f0          	mov    -0x10(%rbp),%rax
    410e:	48 8d 50 30          	lea    0x30(%rax),%rdx
    4112:	48 8b 45 f8          	mov    -0x8(%rbp),%rax
    4116:	48 89 d6             	mov    %rdx,%rsi
    4119:	48 89 c7             	mov    %rax,%rdi
    411c:	e8 91 04 00 00       	call   45b2 <_ZNSt15_Deque_iteratorISt4pairIPciERS2_PS2_EC1ERKS5_>
    4121:	48 8b 45 f8          	mov    -0x8(%rbp),%rax
    4125:	c9                   	leave  
    4126:	c3                   	ret    
    4127:	90                   	nop

0000000000004128 <_ZNSt11_Deque_baseISt4pairIPciESaIS2_EE19_M_get_Tp_allocatorEv>:
    4128:	f3 0f 1e fa          	endbr64 
    412c:	55                   	push   %rbp
    412d:	48 89 e5             	mov    %rsp,%rbp
    4130:	48 89 7d f8          	mov    %rdi,-0x8(%rbp)
    4134:	48 8b 45 f8          	mov    -0x8(%rbp),%rax
    4138:	5d                   	pop    %rbp
    4139:	c3                   	ret    

000000000000413a <_ZNSt5dequeISt4pairIPciESaIS2_EE15_M_destroy_dataESt15_Deque_iteratorIS2_RS2_PS2_ES8_RKS3_>:
    413a:	f3 0f 1e fa          	endbr64 
    413e:	55                   	push   %rbp
    413f:	48 89 e5             	mov    %rsp,%rbp
    4142:	48 83 ec 50          	sub    $0x50,%rsp
    4146:	48 89 7d c8          	mov    %rdi,-0x38(%rbp)
    414a:	48 89 75 c0          	mov    %rsi,-0x40(%rbp)
    414e:	48 89 55 b8          	mov    %rdx,-0x48(%rbp)
    4152:	48 89 4d b0          	mov    %rcx,-0x50(%rbp)
    4156:	64 48 8b 04 25 28 00 	mov    %fs:0x28,%rax
    415d:	00 00 
    415f:	48 89 45 f8          	mov    %rax,-0x8(%rbp)
    4163:	31 c0                	xor    %eax,%eax
    4165:	90                   	nop
    4166:	48 8b 45 f8          	mov    -0x8(%rbp),%rax
    416a:	64 48 2b 04 25 28 00 	sub    %fs:0x28,%rax
    4171:	00 00 
    4173:	74 05                	je     417a <_ZNSt5dequeISt4pairIPciESaIS2_EE15_M_destroy_dataESt15_Deque_iteratorIS2_RS2_PS2_ES8_RKS3_+0x40>
    4175:	e8 d6 d0 ff ff       	call   1250 <__stack_chk_fail@plt>
    417a:	c9                   	leave  
    417b:	c3                   	ret    

000000000000417c <_ZNSt5dequeISt4pairIPciESaIS2_EE12emplace_backIJS2_EEERS2_DpOT_>:
    417c:	f3 0f 1e fa          	endbr64 
    4180:	55                   	push   %rbp
    4181:	48 89 e5             	mov    %rsp,%rbp
    4184:	48 83 ec 10          	sub    $0x10,%rsp
    4188:	48 89 7d f8          	mov    %rdi,-0x8(%rbp)
    418c:	48 89 75 f0          	mov    %rsi,-0x10(%rbp)
    4190:	48 8b 45 f8          	mov    -0x8(%rbp),%rax
    4194:	48 8b 50 30          	mov    0x30(%rax),%rdx
    4198:	48 8b 45 f8          	mov    -0x8(%rbp),%rax
    419c:	48 8b 40 40          	mov    0x40(%rax),%rax
    41a0:	48 83 e8 10          	sub    $0x10,%rax
    41a4:	48 39 c2             	cmp    %rax,%rdx
    41a7:	74 3c                	je     41e5 <_ZNSt5dequeISt4pairIPciESaIS2_EE12emplace_backIJS2_EEERS2_DpOT_+0x69>
    41a9:	48 8b 45 f0          	mov    -0x10(%rbp),%rax
    41ad:	48 89 c7             	mov    %rax,%rdi
    41b0:	e8 4e 04 00 00       	call   4603 <_ZSt7forwardISt4pairIPciEEOT_RNSt16remove_referenceIS3_E4typeE>
    41b5:	48 89 c2             	mov    %rax,%rdx
    41b8:	48 8b 45 f8          	mov    -0x8(%rbp),%rax
    41bc:	48 8b 48 30          	mov    0x30(%rax),%rcx
    41c0:	48 8b 45 f8          	mov    -0x8(%rbp),%rax
    41c4:	48 89 ce             	mov    %rcx,%rsi
    41c7:	48 89 c7             	mov    %rax,%rdi
    41ca:	e8 46 04 00 00       	call   4615 <_ZNSt16allocator_traitsISaISt4pairIPciEEE9constructIS2_JS2_EEEvRS3_PT_DpOT0_>
    41cf:	48 8b 45 f8          	mov    -0x8(%rbp),%rax
    41d3:	48 8b 40 30          	mov    0x30(%rax),%rax
    41d7:	48 8d 50 10          	lea    0x10(%rax),%rdx
    41db:	48 8b 45 f8          	mov    -0x8(%rbp),%rax
    41df:	48 89 50 30          	mov    %rdx,0x30(%rax)
    41e3:	eb 1e                	jmp    4203 <_ZNSt5dequeISt4pairIPciESaIS2_EE12emplace_backIJS2_EEERS2_DpOT_+0x87>
    41e5:	48 8b 45 f0          	mov    -0x10(%rbp),%rax
    41e9:	48 89 c7             	mov    %rax,%rdi
    41ec:	e8 12 04 00 00       	call   4603 <_ZSt7forwardISt4pairIPciEEOT_RNSt16remove_referenceIS3_E4typeE>
    41f1:	48 89 c2             	mov    %rax,%rdx
    41f4:	48 8b 45 f8          	mov    -0x8(%rbp),%rax
    41f8:	48 89 d6             	mov    %rdx,%rsi
    41fb:	48 89 c7             	mov    %rax,%rdi
    41fe:	e8 4f 04 00 00       	call   4652 <_ZNSt5dequeISt4pairIPciESaIS2_EE16_M_push_back_auxIJS2_EEEvDpOT_>
    4203:	48 8b 45 f8          	mov    -0x8(%rbp),%rax
    4207:	48 89 c7             	mov    %rax,%rdi
    420a:	e8 15 05 00 00       	call   4724 <_ZNSt5dequeISt4pairIPciESaIS2_EE4backEv>
    420f:	c9                   	leave  
    4210:	c3                   	ret    
    4211:	90                   	nop

0000000000004212 <_ZNKSt15_Deque_iteratorISt4pairIPciERS2_PS2_EdeEv>:
    4212:	f3 0f 1e fa          	endbr64 
    4216:	55                   	push   %rbp
    4217:	48 89 e5             	mov    %rsp,%rbp
    421a:	48 89 7d f8          	mov    %rdi,-0x8(%rbp)
    421e:	48 8b 45 f8          	mov    -0x8(%rbp),%rax
    4222:	48 8b 00             	mov    (%rax),%rax
    4225:	5d                   	pop    %rbp
    4226:	c3                   	ret    

0000000000004227 <_ZNSt16allocator_traitsISaISt4pairIPciEEE7destroyIS2_EEvRS3_PT_>:
    4227:	f3 0f 1e fa          	endbr64 
    422b:	55                   	push   %rbp
    422c:	48 89 e5             	mov    %rsp,%rbp
    422f:	48 83 ec 10          	sub    $0x10,%rsp
    4233:	48 89 7d f8          	mov    %rdi,-0x8(%rbp)
    4237:	48 89 75 f0          	mov    %rsi,-0x10(%rbp)
    423b:	48 8b 55 f0          	mov    -0x10(%rbp),%rdx
    423f:	48 8b 45 f8          	mov    -0x8(%rbp),%rax
    4243:	48 89 d6             	mov    %rdx,%rsi
    4246:	48 89 c7             	mov    %rax,%rdi
    4249:	e8 36 05 00 00       	call   4784 <_ZN9__gnu_cxx13new_allocatorISt4pairIPciEE7destroyIS3_EEvPT_>
    424e:	90                   	nop
    424f:	c9                   	leave  
    4250:	c3                   	ret    
    4251:	90                   	nop

0000000000004252 <_ZNSt5dequeISt4pairIPciESaIS2_EE16_M_pop_front_auxEv>:
    4252:	f3 0f 1e fa          	endbr64 
    4256:	55                   	push   %rbp
    4257:	48 89 e5             	mov    %rsp,%rbp
    425a:	53                   	push   %rbx
    425b:	48 83 ec 18          	sub    $0x18,%rsp
    425f:	48 89 7d e8          	mov    %rdi,-0x18(%rbp)
    4263:	48 8b 45 e8          	mov    -0x18(%rbp),%rax
    4267:	48 8b 58 10          	mov    0x10(%rax),%rbx
    426b:	48 8b 45 e8          	mov    -0x18(%rbp),%rax
    426f:	48 89 c7             	mov    %rax,%rdi
    4272:	e8 b1 fe ff ff       	call   4128 <_ZNSt11_Deque_baseISt4pairIPciESaIS2_EE19_M_get_Tp_allocatorEv>
    4277:	48 89 de             	mov    %rbx,%rsi
    427a:	48 89 c7             	mov    %rax,%rdi
    427d:	e8 a5 ff ff ff       	call   4227 <_ZNSt16allocator_traitsISaISt4pairIPciEEE7destroyIS2_EEvRS3_PT_>
    4282:	48 8b 45 e8          	mov    -0x18(%rbp),%rax
    4286:	48 8b 55 e8          	mov    -0x18(%rbp),%rdx
    428a:	48 8b 52 18          	mov    0x18(%rdx),%rdx
    428e:	48 89 d6             	mov    %rdx,%rsi
    4291:	48 89 c7             	mov    %rax,%rdi
    4294:	e8 57 02 00 00       	call   44f0 <_ZNSt11_Deque_baseISt4pairIPciESaIS2_EE18_M_deallocate_nodeEPS2_>
    4299:	48 8b 45 e8          	mov    -0x18(%rbp),%rax
    429d:	48 83 c0 10          	add    $0x10,%rax
    42a1:	48 8b 55 e8          	mov    -0x18(%rbp),%rdx
    42a5:	48 8b 52 28          	mov    0x28(%rdx),%rdx
    42a9:	48 83 c2 08          	add    $0x8,%rdx
    42ad:	48 89 d6             	mov    %rdx,%rsi
    42b0:	48 89 c7             	mov    %rax,%rdi
    42b3:	e8 e4 01 00 00       	call   449c <_ZNSt15_Deque_iteratorISt4pairIPciERS2_PS2_E11_M_set_nodeEPS4_>
    42b8:	48 8b 45 e8          	mov    -0x18(%rbp),%rax
    42bc:	48 8b 50 18          	mov    0x18(%rax),%rdx
    42c0:	48 8b 45 e8          	mov    -0x18(%rbp),%rax
    42c4:	48 89 50 10          	mov    %rdx,0x10(%rax)
    42c8:	90                   	nop
    42c9:	48 8b 5d f8          	mov    -0x8(%rbp),%rbx
    42cd:	c9                   	leave  
    42ce:	c3                   	ret    
    42cf:	90                   	nop

00000000000042d0 <_ZNSaISt4pairIPciEEC1Ev>:
    42d0:	f3 0f 1e fa          	endbr64 
    42d4:	55                   	push   %rbp
    42d5:	48 89 e5             	mov    %rsp,%rbp
    42d8:	48 83 ec 10          	sub    $0x10,%rsp
    42dc:	48 89 7d f8          	mov    %rdi,-0x8(%rbp)
    42e0:	48 8b 45 f8          	mov    -0x8(%rbp),%rax
    42e4:	48 89 c7             	mov    %rax,%rdi
    42e7:	e8 ac 04 00 00       	call   4798 <_ZN9__gnu_cxx13new_allocatorISt4pairIPciEEC1Ev>
    42ec:	90                   	nop
    42ed:	c9                   	leave  
    42ee:	c3                   	ret    
    42ef:	90                   	nop

00000000000042f0 <_ZNSt11_Deque_baseISt4pairIPciESaIS2_EE16_Deque_impl_dataC1Ev>:
    42f0:	f3 0f 1e fa          	endbr64 
    42f4:	55                   	push   %rbp
    42f5:	48 89 e5             	mov    %rsp,%rbp
    42f8:	48 83 ec 10          	sub    $0x10,%rsp
    42fc:	48 89 7d f8          	mov    %rdi,-0x8(%rbp)
    4300:	48 8b 45 f8          	mov    -0x8(%rbp),%rax
    4304:	48 c7 00 00 00 00 00 	movq   $0x0,(%rax)
    430b:	48 8b 45 f8          	mov    -0x8(%rbp),%rax
    430f:	48 c7 40 08 00 00 00 	movq   $0x0,0x8(%rax)
    4316:	00 
    4317:	48 8b 45 f8          	mov    -0x8(%rbp),%rax
    431b:	48 83 c0 10          	add    $0x10,%rax
    431f:	48 89 c7             	mov    %rax,%rdi
    4322:	e8 81 04 00 00       	call   47a8 <_ZNSt15_Deque_iteratorISt4pairIPciERS2_PS2_EC1Ev>
    4327:	48 8b 45 f8          	mov    -0x8(%rbp),%rax
    432b:	48 83 c0 30          	add    $0x30,%rax
    432f:	48 89 c7             	mov    %rax,%rdi
    4332:	e8 71 04 00 00       	call   47a8 <_ZNSt15_Deque_iteratorISt4pairIPciERS2_PS2_EC1Ev>
    4337:	90                   	nop
    4338:	c9                   	leave  
    4339:	c3                   	ret    

000000000000433a <_ZN9__gnu_cxx13new_allocatorISt4pairIPciEED1Ev>:
    433a:	f3 0f 1e fa          	endbr64 
    433e:	55                   	push   %rbp
    433f:	48 89 e5             	mov    %rsp,%rbp
    4342:	48 89 7d f8          	mov    %rdi,-0x8(%rbp)
    4346:	90                   	nop
    4347:	5d                   	pop    %rbp
    4348:	c3                   	ret    

0000000000004349 <_ZSt3maxImERKT_S2_S2_>:
    4349:	f3 0f 1e fa          	endbr64 
    434d:	55                   	push   %rbp
    434e:	48 89 e5             	mov    %rsp,%rbp
    4351:	48 89 7d f8          	mov    %rdi,-0x8(%rbp)
    4355:	48 89 75 f0          	mov    %rsi,-0x10(%rbp)
    4359:	48 8b 45 f8          	mov    -0x8(%rbp),%rax
    435d:	48 8b 10             	mov    (%rax),%rdx
    4360:	48 8b 45 f0          	mov    -0x10(%rbp),%rax
    4364:	48 8b 00             	mov    (%rax),%rax
    4367:	48 39 c2             	cmp    %rax,%rdx
    436a:	73 06                	jae    4372 <_ZSt3maxImERKT_S2_S2_+0x29>
    436c:	48 8b 45 f0          	mov    -0x10(%rbp),%rax
    4370:	eb 04                	jmp    4376 <_ZSt3maxImERKT_S2_S2_+0x2d>
    4372:	48 8b 45 f8          	mov    -0x8(%rbp),%rax
    4376:	5d                   	pop    %rbp
    4377:	c3                   	ret    

0000000000004378 <_ZNSt11_Deque_baseISt4pairIPciESaIS2_EE15_M_allocate_mapEm>:
    4378:	f3 0f 1e fa          	endbr64 
    437c:	55                   	push   %rbp
    437d:	48 89 e5             	mov    %rsp,%rbp
    4380:	53                   	push   %rbx
    4381:	48 83 ec 28          	sub    $0x28,%rsp
    4385:	48 89 7d d8          	mov    %rdi,-0x28(%rbp)
    4389:	48 89 75 d0          	mov    %rsi,-0x30(%rbp)
    438d:	64 48 8b 04 25 28 00 	mov    %fs:0x28,%rax
    4394:	00 00 
    4396:	48 89 45 e8          	mov    %rax,-0x18(%rbp)
    439a:	31 c0                	xor    %eax,%eax
    439c:	48 8d 45 e7          	lea    -0x19(%rbp),%rax
    43a0:	48 8b 55 d8          	mov    -0x28(%rbp),%rdx
    43a4:	48 89 d6             	mov    %rdx,%rsi
    43a7:	48 89 c7             	mov    %rax,%rdi
    43aa:	e8 79 01 00 00       	call   4528 <_ZNKSt11_Deque_baseISt4pairIPciESaIS2_EE20_M_get_map_allocatorEv>
    43af:	48 8b 55 d0          	mov    -0x30(%rbp),%rdx
    43b3:	48 8d 45 e7          	lea    -0x19(%rbp),%rax
    43b7:	48 89 d6             	mov    %rdx,%rsi
    43ba:	48 89 c7             	mov    %rax,%rdi
    43bd:	e8 24 04 00 00       	call   47e6 <_ZNSt16allocator_traitsISaIPSt4pairIPciEEE8allocateERS4_m>
    43c2:	48 89 c3             	mov    %rax,%rbx
    43c5:	90                   	nop
    43c6:	48 8d 45 e7          	lea    -0x19(%rbp),%rax
    43ca:	48 89 c7             	mov    %rax,%rdi
    43cd:	e8 8e 01 00 00       	call   4560 <_ZNSaIPSt4pairIPciEED1Ev>
    43d2:	48 89 d8             	mov    %rbx,%rax
    43d5:	48 8b 55 e8          	mov    -0x18(%rbp),%rdx
    43d9:	64 48 2b 14 25 28 00 	sub    %fs:0x28,%rdx
    43e0:	00 00 
    43e2:	74 25                	je     4409 <_ZNSt11_Deque_baseISt4pairIPciESaIS2_EE15_M_allocate_mapEm+0x91>
    43e4:	eb 1e                	jmp    4404 <_ZNSt11_Deque_baseISt4pairIPciESaIS2_EE15_M_allocate_mapEm+0x8c>
    43e6:	f3 0f 1e fa          	endbr64 
    43ea:	48 89 c3             	mov    %rax,%rbx
    43ed:	48 8d 45 e7          	lea    -0x19(%rbp),%rax
    43f1:	48 89 c7             	mov    %rax,%rdi
    43f4:	e8 67 01 00 00       	call   4560 <_ZNSaIPSt4pairIPciEED1Ev>
    43f9:	48 89 d8             	mov    %rbx,%rax
    43fc:	48 89 c7             	mov    %rax,%rdi
    43ff:	e8 ec ce ff ff       	call   12f0 <_Unwind_Resume@plt>
    4404:	e8 47 ce ff ff       	call   1250 <__stack_chk_fail@plt>
    4409:	48 8b 5d f8          	mov    -0x8(%rbp),%rbx
    440d:	c9                   	leave  
    440e:	c3                   	ret    
    440f:	90                   	nop

0000000000004410 <_ZNSt11_Deque_baseISt4pairIPciESaIS2_EE15_M_create_nodesEPPS2_S6_>:
    4410:	f3 0f 1e fa          	endbr64 
    4414:	55                   	push   %rbp
    4415:	48 89 e5             	mov    %rsp,%rbp
    4418:	53                   	push   %rbx
    4419:	48 83 ec 38          	sub    $0x38,%rsp
    441d:	48 89 7d d8          	mov    %rdi,-0x28(%rbp)
    4421:	48 89 75 d0          	mov    %rsi,-0x30(%rbp)
    4425:	48 89 55 c8          	mov    %rdx,-0x38(%rbp)
    4429:	48 8b 45 d0          	mov    -0x30(%rbp),%rax
    442d:	48 89 45 e8          	mov    %rax,-0x18(%rbp)
    4431:	eb 18                	jmp    444b <_ZNSt11_Deque_baseISt4pairIPciESaIS2_EE15_M_create_nodesEPPS2_S6_+0x3b>
    4433:	48 8b 45 d8          	mov    -0x28(%rbp),%rax
    4437:	48 89 c7             	mov    %rax,%rdi
    443a:	e8 d5 03 00 00       	call   4814 <_ZNSt11_Deque_baseISt4pairIPciESaIS2_EE16_M_allocate_nodeEv>
    443f:	48 8b 55 e8          	mov    -0x18(%rbp),%rdx
    4443:	48 89 02             	mov    %rax,(%rdx)
    4446:	48 83 45 e8 08       	addq   $0x8,-0x18(%rbp)
    444b:	48 8b 45 e8          	mov    -0x18(%rbp),%rax
    444f:	48 3b 45 c8          	cmp    -0x38(%rbp),%rax
    4453:	72 de                	jb     4433 <_ZNSt11_Deque_baseISt4pairIPciESaIS2_EE15_M_create_nodesEPPS2_S6_+0x23>
    4455:	eb 3f                	jmp    4496 <_ZNSt11_Deque_baseISt4pairIPciESaIS2_EE15_M_create_nodesEPPS2_S6_+0x86>
    4457:	f3 0f 1e fa          	endbr64 
    445b:	48 89 c7             	mov    %rax,%rdi
    445e:	e8 6d cd ff ff       	call   11d0 <__cxa_begin_catch@plt>
    4463:	48 8b 55 e8          	mov    -0x18(%rbp),%rdx
    4467:	48 8b 4d d0          	mov    -0x30(%rbp),%rcx
    446b:	48 8b 45 d8          	mov    -0x28(%rbp),%rax
    446f:	48 89 ce             	mov    %rcx,%rsi
    4472:	48 89 c7             	mov    %rax,%rdi
    4475:	e8 8a fb ff ff       	call   4004 <_ZNSt11_Deque_baseISt4pairIPciESaIS2_EE16_M_destroy_nodesEPPS2_S6_>
    447a:	e8 21 ce ff ff       	call   12a0 <__cxa_rethrow@plt>
    447f:	f3 0f 1e fa          	endbr64 
    4483:	48 89 c3             	mov    %rax,%rbx
    4486:	e8 55 ce ff ff       	call   12e0 <__cxa_end_catch@plt>
    448b:	48 89 d8             	mov    %rbx,%rax
    448e:	48 89 c7             	mov    %rax,%rdi
    4491:	e8 5a ce ff ff       	call   12f0 <_Unwind_Resume@plt>
    4496:	48 8b 5d f8          	mov    -0x8(%rbp),%rbx
    449a:	c9                   	leave  
    449b:	c3                   	ret    

000000000000449c <_ZNSt15_Deque_iteratorISt4pairIPciERS2_PS2_E11_M_set_nodeEPS4_>:
    449c:	f3 0f 1e fa          	endbr64 
    44a0:	55                   	push   %rbp
    44a1:	48 89 e5             	mov    %rsp,%rbp
    44a4:	53                   	push   %rbx
    44a5:	48 83 ec 18          	sub    $0x18,%rsp
    44a9:	48 89 7d e8          	mov    %rdi,-0x18(%rbp)
    44ad:	48 89 75 e0          	mov    %rsi,-0x20(%rbp)
    44b1:	48 8b 45 e8          	mov    -0x18(%rbp),%rax
    44b5:	48 8b 55 e0          	mov    -0x20(%rbp),%rdx
    44b9:	48 89 50 18          	mov    %rdx,0x18(%rax)
    44bd:	48 8b 45 e0          	mov    -0x20(%rbp),%rax
    44c1:	48 8b 10             	mov    (%rax),%rdx
    44c4:	48 8b 45 e8          	mov    -0x18(%rbp),%rax
    44c8:	48 89 50 08          	mov    %rdx,0x8(%rax)
    44cc:	48 8b 45 e8          	mov    -0x18(%rbp),%rax
    44d0:	48 8b 58 08          	mov    0x8(%rax),%rbx
    44d4:	e8 69 03 00 00       	call   4842 <_ZNSt15_Deque_iteratorISt4pairIPciERS2_PS2_E14_S_buffer_sizeEv>
    44d9:	48 c1 e0 04          	shl    $0x4,%rax
    44dd:	48 8d 14 03          	lea    (%rbx,%rax,1),%rdx
    44e1:	48 8b 45 e8          	mov    -0x18(%rbp),%rax
    44e5:	48 89 50 10          	mov    %rdx,0x10(%rax)
    44e9:	90                   	nop
    44ea:	48 8b 5d f8          	mov    -0x8(%rbp),%rbx
    44ee:	c9                   	leave  
    44ef:	c3                   	ret    

00000000000044f0 <_ZNSt11_Deque_baseISt4pairIPciESaIS2_EE18_M_deallocate_nodeEPS2_>:
    44f0:	f3 0f 1e fa          	endbr64 
    44f4:	55                   	push   %rbp
    44f5:	48 89 e5             	mov    %rsp,%rbp
    44f8:	48 83 ec 10          	sub    $0x10,%rsp
    44fc:	48 89 7d f8          	mov    %rdi,-0x8(%rbp)
    4500:	48 89 75 f0          	mov    %rsi,-0x10(%rbp)
    4504:	bf 10 00 00 00       	mov    $0x10,%edi
    4509:	e8 3b f4 ff ff       	call   3949 <_ZSt16__deque_buf_sizem>
    450e:	48 89 c2             	mov    %rax,%rdx
    4511:	48 8b 45 f8          	mov    -0x8(%rbp),%rax
    4515:	48 8b 4d f0          	mov    -0x10(%rbp),%rcx
    4519:	48 89 ce             	mov    %rcx,%rsi
    451c:	48 89 c7             	mov    %rax,%rdi
    451f:	e8 32 03 00 00       	call   4856 <_ZNSt16allocator_traitsISaISt4pairIPciEEE10deallocateERS3_PS2_m>
    4524:	90                   	nop
    4525:	c9                   	leave  
    4526:	c3                   	ret    
    4527:	90                   	nop

0000000000004528 <_ZNKSt11_Deque_baseISt4pairIPciESaIS2_EE20_M_get_map_allocatorEv>:
    4528:	f3 0f 1e fa          	endbr64 
    452c:	55                   	push   %rbp
    452d:	48 89 e5             	mov    %rsp,%rbp
    4530:	48 83 ec 10          	sub    $0x10,%rsp
    4534:	48 89 7d f8          	mov    %rdi,-0x8(%rbp)
    4538:	48 89 75 f0          	mov    %rsi,-0x10(%rbp)
    453c:	48 8b 45 f0          	mov    -0x10(%rbp),%rax
    4540:	48 89 c7             	mov    %rax,%rdi
    4543:	e8 40 03 00 00       	call   4888 <_ZNKSt11_Deque_baseISt4pairIPciESaIS2_EE19_M_get_Tp_allocatorEv>
    4548:	48 89 c2             	mov    %rax,%rdx
    454b:	48 8b 45 f8          	mov    -0x8(%rbp),%rax
    454f:	48 89 d6             	mov    %rdx,%rsi
    4552:	48 89 c7             	mov    %rax,%rdi
    4555:	e8 40 03 00 00       	call   489a <_ZNSaIPSt4pairIPciEEC1IS1_EERKSaIT_E>
    455a:	48 8b 45 f8          	mov    -0x8(%rbp),%rax
    455e:	c9                   	leave  
    455f:	c3                   	ret    

0000000000004560 <_ZNSaIPSt4pairIPciEED1Ev>:
    4560:	f3 0f 1e fa          	endbr64 
    4564:	55                   	push   %rbp
    4565:	48 89 e5             	mov    %rsp,%rbp
    4568:	48 83 ec 10          	sub    $0x10,%rsp
    456c:	48 89 7d f8          	mov    %rdi,-0x8(%rbp)
    4570:	48 8b 45 f8          	mov    -0x8(%rbp),%rax
    4574:	48 89 c7             	mov    %rax,%rdi
    4577:	e8 42 03 00 00       	call   48be <_ZN9__gnu_cxx13new_allocatorIPSt4pairIPciEED1Ev>
    457c:	90                   	nop
    457d:	c9                   	leave  
    457e:	c3                   	ret    

000000000000457f <_ZNSt16allocator_traitsISaIPSt4pairIPciEEE10deallocateERS4_PS3_m>:
    457f:	f3 0f 1e fa          	endbr64 
    4583:	55                   	push   %rbp
    4584:	48 89 e5             	mov    %rsp,%rbp
    4587:	48 83 ec 20          	sub    $0x20,%rsp
    458b:	48 89 7d f8          	mov    %rdi,-0x8(%rbp)
    458f:	48 89 75 f0          	mov    %rsi,-0x10(%rbp)
    4593:	48 89 55 e8          	mov    %rdx,-0x18(%rbp)
    4597:	48 8b 55 e8          	mov    -0x18(%rbp),%rdx
    459b:	48 8b 4d f0          	mov    -0x10(%rbp),%rcx
    459f:	48 8b 45 f8          	mov    -0x8(%rbp),%rax
    45a3:	48 89 ce             	mov    %rcx,%rsi
    45a6:	48 89 c7             	mov    %rax,%rdi
    45a9:	e8 20 03 00 00       	call   48ce <_ZN9__gnu_cxx13new_allocatorIPSt4pairIPciEE10deallocateEPS4_m>
    45ae:	90                   	nop
    45af:	c9                   	leave  
    45b0:	c3                   	ret    
    45b1:	90                   	nop

00000000000045b2 <_ZNSt15_Deque_iteratorISt4pairIPciERS2_PS2_EC1ERKS5_>:
    45b2:	f3 0f 1e fa          	endbr64 
    45b6:	55                   	push   %rbp
    45b7:	48 89 e5             	mov    %rsp,%rbp
    45ba:	48 89 7d f8          	mov    %rdi,-0x8(%rbp)
    45be:	48 89 75 f0          	mov    %rsi,-0x10(%rbp)
    45c2:	48 8b 45 f0          	mov    -0x10(%rbp),%rax
    45c6:	48 8b 10             	mov    (%rax),%rdx
    45c9:	48 8b 45 f8          	mov    -0x8(%rbp),%rax
    45cd:	48 89 10             	mov    %rdx,(%rax)
    45d0:	48 8b 45 f0          	mov    -0x10(%rbp),%rax
    45d4:	48 8b 50 08          	mov    0x8(%rax),%rdx
    45d8:	48 8b 45 f8          	mov    -0x8(%rbp),%rax
    45dc:	48 89 50 08          	mov    %rdx,0x8(%rax)
    45e0:	48 8b 45 f0          	mov    -0x10(%rbp),%rax
    45e4:	48 8b 50 10          	mov    0x10(%rax),%rdx
    45e8:	48 8b 45 f8          	mov    -0x8(%rbp),%rax
    45ec:	48 89 50 10          	mov    %rdx,0x10(%rax)
    45f0:	48 8b 45 f0          	mov    -0x10(%rbp),%rax
    45f4:	48 8b 50 18          	mov    0x18(%rax),%rdx
    45f8:	48 8b 45 f8          	mov    -0x8(%rbp),%rax
    45fc:	48 89 50 18          	mov    %rdx,0x18(%rax)
    4600:	90                   	nop
    4601:	5d                   	pop    %rbp
    4602:	c3                   	ret    

0000000000004603 <_ZSt7forwardISt4pairIPciEEOT_RNSt16remove_referenceIS3_E4typeE>:
    4603:	f3 0f 1e fa          	endbr64 
    4607:	55                   	push   %rbp
    4608:	48 89 e5             	mov    %rsp,%rbp
    460b:	48 89 7d f8          	mov    %rdi,-0x8(%rbp)
    460f:	48 8b 45 f8          	mov    -0x8(%rbp),%rax
    4613:	5d                   	pop    %rbp
    4614:	c3                   	ret    

0000000000004615 <_ZNSt16allocator_traitsISaISt4pairIPciEEE9constructIS2_JS2_EEEvRS3_PT_DpOT0_>:
    4615:	f3 0f 1e fa          	endbr64 
    4619:	55                   	push   %rbp
    461a:	48 89 e5             	mov    %rsp,%rbp
    461d:	48 83 ec 20          	sub    $0x20,%rsp
    4621:	48 89 7d f8          	mov    %rdi,-0x8(%rbp)
    4625:	48 89 75 f0          	mov    %rsi,-0x10(%rbp)
    4629:	48 89 55 e8          	mov    %rdx,-0x18(%rbp)
    462d:	48 8b 45 e8          	mov    -0x18(%rbp),%rax
    4631:	48 89 c7             	mov    %rax,%rdi
    4634:	e8 ca ff ff ff       	call   4603 <_ZSt7forwardISt4pairIPciEEOT_RNSt16remove_referenceIS3_E4typeE>
    4639:	48 89 c2             	mov    %rax,%rdx
    463c:	48 8b 4d f0          	mov    -0x10(%rbp),%rcx
    4640:	48 8b 45 f8          	mov    -0x8(%rbp),%rax
    4644:	48 89 ce             	mov    %rcx,%rsi
    4647:	48 89 c7             	mov    %rax,%rdi
    464a:	e8 b5 02 00 00       	call   4904 <_ZN9__gnu_cxx13new_allocatorISt4pairIPciEE9constructIS3_JS3_EEEvPT_DpOT0_>
    464f:	90                   	nop
    4650:	c9                   	leave  
    4651:	c3                   	ret    

0000000000004652 <_ZNSt5dequeISt4pairIPciESaIS2_EE16_M_push_back_auxIJS2_EEEvDpOT_>:
    4652:	f3 0f 1e fa          	endbr64 
    4656:	55                   	push   %rbp
    4657:	48 89 e5             	mov    %rsp,%rbp
    465a:	53                   	push   %rbx
    465b:	48 83 ec 18          	sub    $0x18,%rsp
    465f:	48 89 7d e8          	mov    %rdi,-0x18(%rbp)
    4663:	48 89 75 e0          	mov    %rsi,-0x20(%rbp)
    4667:	48 8b 45 e8          	mov    -0x18(%rbp),%rax
    466b:	48 89 c7             	mov    %rax,%rdi
    466e:	e8 e3 02 00 00       	call   4956 <_ZNKSt5dequeISt4pairIPciESaIS2_EE4sizeEv>
    4673:	48 89 c3             	mov    %rax,%rbx
    4676:	48 8b 45 e8          	mov    -0x18(%rbp),%rax
    467a:	48 89 c7             	mov    %rax,%rdi
    467d:	e8 02 03 00 00       	call   4984 <_ZNKSt5dequeISt4pairIPciESaIS2_EE8max_sizeEv>
    4682:	48 39 c3             	cmp    %rax,%rbx
    4685:	0f 94 c0             	sete   %al
    4688:	84 c0                	test   %al,%al
    468a:	74 0f                	je     469b <_ZNSt5dequeISt4pairIPciESaIS2_EE16_M_push_back_auxIJS2_EEEvDpOT_+0x49>
    468c:	48 8d 05 05 1a 00 00 	lea    0x1a05(%rip),%rax        # 6098 <_IO_stdin_used+0x98>
    4693:	48 89 c7             	mov    %rax,%rdi
    4696:	e8 45 cb ff ff       	call   11e0 <_ZSt20__throw_length_errorPKc@plt>
    469b:	48 8b 45 e8          	mov    -0x18(%rbp),%rax
    469f:	be 01 00 00 00       	mov    $0x1,%esi
    46a4:	48 89 c7             	mov    %rax,%rdi
    46a7:	e8 fe 02 00 00       	call   49aa <_ZNSt5dequeISt4pairIPciESaIS2_EE22_M_reserve_map_at_backEm>
    46ac:	48 8b 45 e8          	mov    -0x18(%rbp),%rax
    46b0:	48 8b 55 e8          	mov    -0x18(%rbp),%rdx
    46b4:	48 8b 52 48          	mov    0x48(%rdx),%rdx
    46b8:	48 8d 5a 08          	lea    0x8(%rdx),%rbx
    46bc:	48 89 c7             	mov    %rax,%rdi
    46bf:	e8 50 01 00 00       	call   4814 <_ZNSt11_Deque_baseISt4pairIPciESaIS2_EE16_M_allocate_nodeEv>
    46c4:	48 89 03             	mov    %rax,(%rbx)
    46c7:	48 8b 45 e0          	mov    -0x20(%rbp),%rax
    46cb:	48 89 c7             	mov    %rax,%rdi
    46ce:	e8 30 ff ff ff       	call   4603 <_ZSt7forwardISt4pairIPciEEOT_RNSt16remove_referenceIS3_E4typeE>
    46d3:	48 89 c2             	mov    %rax,%rdx
    46d6:	48 8b 45 e8          	mov    -0x18(%rbp),%rax
    46da:	48 8b 48 30          	mov    0x30(%rax),%rcx
    46de:	48 8b 45 e8          	mov    -0x18(%rbp),%rax
    46e2:	48 89 ce             	mov    %rcx,%rsi
    46e5:	48 89 c7             	mov    %rax,%rdi
    46e8:	e8 28 ff ff ff       	call   4615 <_ZNSt16allocator_traitsISaISt4pairIPciEEE9constructIS2_JS2_EEEvRS3_PT_DpOT0_>
    46ed:	48 8b 45 e8          	mov    -0x18(%rbp),%rax
    46f1:	48 83 c0 30          	add    $0x30,%rax
    46f5:	48 8b 55 e8          	mov    -0x18(%rbp),%rdx
    46f9:	48 8b 52 48          	mov    0x48(%rdx),%rdx
    46fd:	48 83 c2 08          	add    $0x8,%rdx
    4701:	48 89 d6             	mov    %rdx,%rsi
    4704:	48 89 c7             	mov    %rax,%rdi
    4707:	e8 90 fd ff ff       	call   449c <_ZNSt15_Deque_iteratorISt4pairIPciERS2_PS2_E11_M_set_nodeEPS4_>
    470c:	48 8b 45 e8          	mov    -0x18(%rbp),%rax
    4710:	48 8b 50 38          	mov    0x38(%rax),%rdx
    4714:	48 8b 45 e8          	mov    -0x18(%rbp),%rax
    4718:	48 89 50 30          	mov    %rdx,0x30(%rax)
    471c:	90                   	nop
    471d:	48 8b 5d f8          	mov    -0x8(%rbp),%rbx
    4721:	c9                   	leave  
    4722:	c3                   	ret    
    4723:	90                   	nop

0000000000004724 <_ZNSt5dequeISt4pairIPciESaIS2_EE4backEv>:
    4724:	f3 0f 1e fa          	endbr64 
    4728:	55                   	push   %rbp
    4729:	48 89 e5             	mov    %rsp,%rbp
    472c:	48 83 ec 40          	sub    $0x40,%rsp
    4730:	48 89 7d c8          	mov    %rdi,-0x38(%rbp)
    4734:	64 48 8b 04 25 28 00 	mov    %fs:0x28,%rax
    473b:	00 00 
    473d:	48 89 45 f8          	mov    %rax,-0x8(%rbp)
    4741:	31 c0                	xor    %eax,%eax
    4743:	48 8d 45 d0          	lea    -0x30(%rbp),%rax
    4747:	48 8b 55 c8          	mov    -0x38(%rbp),%rdx
    474b:	48 89 d6             	mov    %rdx,%rsi
    474e:	48 89 c7             	mov    %rax,%rdi
    4751:	e8 a0 f9 ff ff       	call   40f6 <_ZNSt5dequeISt4pairIPciESaIS2_EE3endEv>
    4756:	48 8d 45 d0          	lea    -0x30(%rbp),%rax
    475a:	48 89 c7             	mov    %rax,%rdi
    475d:	e8 ae 02 00 00       	call   4a10 <_ZNSt15_Deque_iteratorISt4pairIPciERS2_PS2_EmmEv>
    4762:	48 8d 45 d0          	lea    -0x30(%rbp),%rax
    4766:	48 89 c7             	mov    %rax,%rdi
    4769:	e8 a4 fa ff ff       	call   4212 <_ZNKSt15_Deque_iteratorISt4pairIPciERS2_PS2_EdeEv>
    476e:	48 8b 55 f8          	mov    -0x8(%rbp),%rdx
    4772:	64 48 2b 14 25 28 00 	sub    %fs:0x28,%rdx
    4779:	00 00 
    477b:	74 05                	je     4782 <_ZNSt5dequeISt4pairIPciESaIS2_EE4backEv+0x5e>
    477d:	e8 ce ca ff ff       	call   1250 <__stack_chk_fail@plt>
    4782:	c9                   	leave  
    4783:	c3                   	ret    

0000000000004784 <_ZN9__gnu_cxx13new_allocatorISt4pairIPciEE7destroyIS3_EEvPT_>:
    4784:	f3 0f 1e fa          	endbr64 
    4788:	55                   	push   %rbp
    4789:	48 89 e5             	mov    %rsp,%rbp
    478c:	48 89 7d f8          	mov    %rdi,-0x8(%rbp)
    4790:	48 89 75 f0          	mov    %rsi,-0x10(%rbp)
    4794:	90                   	nop
    4795:	5d                   	pop    %rbp
    4796:	c3                   	ret    
    4797:	90                   	nop

0000000000004798 <_ZN9__gnu_cxx13new_allocatorISt4pairIPciEEC1Ev>:
    4798:	f3 0f 1e fa          	endbr64 
    479c:	55                   	push   %rbp
    479d:	48 89 e5             	mov    %rsp,%rbp
    47a0:	48 89 7d f8          	mov    %rdi,-0x8(%rbp)
    47a4:	90                   	nop
    47a5:	5d                   	pop    %rbp
    47a6:	c3                   	ret    
    47a7:	90                   	nop

00000000000047a8 <_ZNSt15_Deque_iteratorISt4pairIPciERS2_PS2_EC1Ev>:
    47a8:	f3 0f 1e fa          	endbr64 
    47ac:	55                   	push   %rbp
    47ad:	48 89 e5             	mov    %rsp,%rbp
    47b0:	48 89 7d f8          	mov    %rdi,-0x8(%rbp)
    47b4:	48 8b 45 f8          	mov    -0x8(%rbp),%rax
    47b8:	48 c7 00 00 00 00 00 	movq   $0x0,(%rax)
    47bf:	48 8b 45 f8          	mov    -0x8(%rbp),%rax
    47c3:	48 c7 40 08 00 00 00 	movq   $0x0,0x8(%rax)
    47ca:	00 
    47cb:	48 8b 45 f8          	mov    -0x8(%rbp),%rax
    47cf:	48 c7 40 10 00 00 00 	movq   $0x0,0x10(%rax)
    47d6:	00 
    47d7:	48 8b 45 f8          	mov    -0x8(%rbp),%rax
    47db:	48 c7 40 18 00 00 00 	movq   $0x0,0x18(%rax)
    47e2:	00 
    47e3:	90                   	nop
    47e4:	5d                   	pop    %rbp
    47e5:	c3                   	ret    

00000000000047e6 <_ZNSt16allocator_traitsISaIPSt4pairIPciEEE8allocateERS4_m>:
    47e6:	f3 0f 1e fa          	endbr64 
    47ea:	55                   	push   %rbp
    47eb:	48 89 e5             	mov    %rsp,%rbp
    47ee:	48 83 ec 10          	sub    $0x10,%rsp
    47f2:	48 89 7d f8          	mov    %rdi,-0x8(%rbp)
    47f6:	48 89 75 f0          	mov    %rsi,-0x10(%rbp)
    47fa:	48 8b 4d f0          	mov    -0x10(%rbp),%rcx
    47fe:	48 8b 45 f8          	mov    -0x8(%rbp),%rax
    4802:	ba 00 00 00 00       	mov    $0x0,%edx
    4807:	48 89 ce             	mov    %rcx,%rsi
    480a:	48 89 c7             	mov    %rax,%rdi
    480d:	e8 7c 02 00 00       	call   4a8e <_ZN9__gnu_cxx13new_allocatorIPSt4pairIPciEE8allocateEmPKv>
    4812:	c9                   	leave  
    4813:	c3                   	ret    

0000000000004814 <_ZNSt11_Deque_baseISt4pairIPciESaIS2_EE16_M_allocate_nodeEv>:
    4814:	f3 0f 1e fa          	endbr64 
    4818:	55                   	push   %rbp
    4819:	48 89 e5             	mov    %rsp,%rbp
    481c:	48 83 ec 10          	sub    $0x10,%rsp
    4820:	48 89 7d f8          	mov    %rdi,-0x8(%rbp)
    4824:	bf 10 00 00 00       	mov    $0x10,%edi
    4829:	e8 1b f1 ff ff       	call   3949 <_ZSt16__deque_buf_sizem>
    482e:	48 89 c2             	mov    %rax,%rdx
    4831:	48 8b 45 f8          	mov    -0x8(%rbp),%rax
    4835:	48 89 d6             	mov    %rdx,%rsi
    4838:	48 89 c7             	mov    %rax,%rdi
    483b:	e8 b3 02 00 00       	call   4af3 <_ZNSt16allocator_traitsISaISt4pairIPciEEE8allocateERS3_m>
    4840:	c9                   	leave  
    4841:	c3                   	ret    

0000000000004842 <_ZNSt15_Deque_iteratorISt4pairIPciERS2_PS2_E14_S_buffer_sizeEv>:
    4842:	f3 0f 1e fa          	endbr64 
    4846:	55                   	push   %rbp
    4847:	48 89 e5             	mov    %rsp,%rbp
    484a:	bf 10 00 00 00       	mov    $0x10,%edi
    484f:	e8 f5 f0 ff ff       	call   3949 <_ZSt16__deque_buf_sizem>
    4854:	5d                   	pop    %rbp
    4855:	c3                   	ret    

0000000000004856 <_ZNSt16allocator_traitsISaISt4pairIPciEEE10deallocateERS3_PS2_m>:
    4856:	f3 0f 1e fa          	endbr64 
    485a:	55                   	push   %rbp
    485b:	48 89 e5             	mov    %rsp,%rbp
    485e:	48 83 ec 20          	sub    $0x20,%rsp
    4862:	48 89 7d f8          	mov    %rdi,-0x8(%rbp)
    4866:	48 89 75 f0          	mov    %rsi,-0x10(%rbp)
    486a:	48 89 55 e8          	mov    %rdx,-0x18(%rbp)
    486e:	48 8b 55 e8          	mov    -0x18(%rbp),%rdx
    4872:	48 8b 4d f0          	mov    -0x10(%rbp),%rcx
    4876:	48 8b 45 f8          	mov    -0x8(%rbp),%rax
    487a:	48 89 ce             	mov    %rcx,%rsi
    487d:	48 89 c7             	mov    %rax,%rdi
    4880:	e8 9d 02 00 00       	call   4b22 <_ZN9__gnu_cxx13new_allocatorISt4pairIPciEE10deallocateEPS3_m>
    4885:	90                   	nop
    4886:	c9                   	leave  
    4887:	c3                   	ret    

0000000000004888 <_ZNKSt11_Deque_baseISt4pairIPciESaIS2_EE19_M_get_Tp_allocatorEv>:
    4888:	f3 0f 1e fa          	endbr64 
    488c:	55                   	push   %rbp
    488d:	48 89 e5             	mov    %rsp,%rbp
    4890:	48 89 7d f8          	mov    %rdi,-0x8(%rbp)
    4894:	48 8b 45 f8          	mov    -0x8(%rbp),%rax
    4898:	5d                   	pop    %rbp
    4899:	c3                   	ret    

000000000000489a <_ZNSaIPSt4pairIPciEEC1IS1_EERKSaIT_E>:
    489a:	f3 0f 1e fa          	endbr64 
    489e:	55                   	push   %rbp
    489f:	48 89 e5             	mov    %rsp,%rbp
    48a2:	48 83 ec 10          	sub    $0x10,%rsp
    48a6:	48 89 7d f8          	mov    %rdi,-0x8(%rbp)
    48aa:	48 89 75 f0          	mov    %rsi,-0x10(%rbp)
    48ae:	48 8b 45 f8          	mov    -0x8(%rbp),%rax
    48b2:	48 89 c7             	mov    %rax,%rdi
    48b5:	e8 9c 02 00 00       	call   4b56 <_ZN9__gnu_cxx13new_allocatorIPSt4pairIPciEEC1Ev>
    48ba:	90                   	nop
    48bb:	c9                   	leave  
    48bc:	c3                   	ret    
    48bd:	90                   	nop

00000000000048be <_ZN9__gnu_cxx13new_allocatorIPSt4pairIPciEED1Ev>:
    48be:	f3 0f 1e fa          	endbr64 
    48c2:	55                   	push   %rbp
    48c3:	48 89 e5             	mov    %rsp,%rbp
    48c6:	48 89 7d f8          	mov    %rdi,-0x8(%rbp)
    48ca:	90                   	nop
    48cb:	5d                   	pop    %rbp
    48cc:	c3                   	ret    
    48cd:	90                   	nop

00000000000048ce <_ZN9__gnu_cxx13new_allocatorIPSt4pairIPciEE10deallocateEPS4_m>:
    48ce:	f3 0f 1e fa          	endbr64 
    48d2:	55                   	push   %rbp
    48d3:	48 89 e5             	mov    %rsp,%rbp
    48d6:	48 83 ec 20          	sub    $0x20,%rsp
    48da:	48 89 7d f8          	mov    %rdi,-0x8(%rbp)
    48de:	48 89 75 f0          	mov    %rsi,-0x10(%rbp)
    48e2:	48 89 55 e8          	mov    %rdx,-0x18(%rbp)
    48e6:	48 8b 45 e8          	mov    -0x18(%rbp),%rax
    48ea:	48 8d 14 c5 00 00 00 	lea    0x0(,%rax,8),%rdx
    48f1:	00 
    48f2:	48 8b 45 f0          	mov    -0x10(%rbp),%rax
    48f6:	48 89 d6             	mov    %rdx,%rsi
    48f9:	48 89 c7             	mov    %rax,%rdi
    48fc:	e8 3f c9 ff ff       	call   1240 <_ZdlPvm@plt>
    4901:	c9                   	leave  
    4902:	c3                   	ret    
    4903:	90                   	nop

0000000000004904 <_ZN9__gnu_cxx13new_allocatorISt4pairIPciEE9constructIS3_JS3_EEEvPT_DpOT0_>:
    4904:	f3 0f 1e fa          	endbr64 
    4908:	55                   	push   %rbp
    4909:	48 89 e5             	mov    %rsp,%rbp
    490c:	53                   	push   %rbx
    490d:	48 83 ec 28          	sub    $0x28,%rsp
    4911:	48 89 7d e8          	mov    %rdi,-0x18(%rbp)
    4915:	48 89 75 e0          	mov    %rsi,-0x20(%rbp)
    4919:	48 89 55 d8          	mov    %rdx,-0x28(%rbp)
    491d:	48 8b 45 d8          	mov    -0x28(%rbp),%rax
    4921:	48 89 c7             	mov    %rax,%rdi
    4924:	e8 da fc ff ff       	call   4603 <_ZSt7forwardISt4pairIPciEEOT_RNSt16remove_referenceIS3_E4typeE>
    4929:	48 89 c3             	mov    %rax,%rbx
    492c:	48 8b 45 e0          	mov    -0x20(%rbp),%rax
    4930:	48 89 c6             	mov    %rax,%rsi
    4933:	bf 10 00 00 00       	mov    $0x10,%edi
    4938:	e8 f6 ef ff ff       	call   3933 <_ZnwmPv>
    493d:	48 89 c1             	mov    %rax,%rcx
    4940:	48 8b 03             	mov    (%rbx),%rax
    4943:	48 8b 53 08          	mov    0x8(%rbx),%rdx
    4947:	48 89 01             	mov    %rax,(%rcx)
    494a:	48 89 51 08          	mov    %rdx,0x8(%rcx)
    494e:	90                   	nop
    494f:	48 8b 5d f8          	mov    -0x8(%rbp),%rbx
    4953:	c9                   	leave  
    4954:	c3                   	ret    
    4955:	90                   	nop

0000000000004956 <_ZNKSt5dequeISt4pairIPciESaIS2_EE4sizeEv>:
    4956:	f3 0f 1e fa          	endbr64 
    495a:	55                   	push   %rbp
    495b:	48 89 e5             	mov    %rsp,%rbp
    495e:	48 83 ec 10          	sub    $0x10,%rsp
    4962:	48 89 7d f8          	mov    %rdi,-0x8(%rbp)
    4966:	48 8b 45 f8          	mov    -0x8(%rbp),%rax
    496a:	48 8d 50 10          	lea    0x10(%rax),%rdx
    496e:	48 8b 45 f8          	mov    -0x8(%rbp),%rax
    4972:	48 83 c0 30          	add    $0x30,%rax
    4976:	48 89 d6             	mov    %rdx,%rsi
    4979:	48 89 c7             	mov    %rax,%rdi
    497c:	e8 e4 01 00 00       	call   4b65 <_ZStmiRKSt15_Deque_iteratorISt4pairIPciERS2_PS2_ES7_>
    4981:	c9                   	leave  
    4982:	c3                   	ret    
    4983:	90                   	nop

0000000000004984 <_ZNKSt5dequeISt4pairIPciESaIS2_EE8max_sizeEv>:
    4984:	f3 0f 1e fa          	endbr64 
    4988:	55                   	push   %rbp
    4989:	48 89 e5             	mov    %rsp,%rbp
    498c:	48 83 ec 10          	sub    $0x10,%rsp
    4990:	48 89 7d f8          	mov    %rdi,-0x8(%rbp)
    4994:	48 8b 45 f8          	mov    -0x8(%rbp),%rax
    4998:	48 89 c7             	mov    %rax,%rdi
    499b:	e8 e8 fe ff ff       	call   4888 <_ZNKSt11_Deque_baseISt4pairIPciESaIS2_EE19_M_get_Tp_allocatorEv>
    49a0:	48 89 c7             	mov    %rax,%rdi
    49a3:	e8 4f 02 00 00       	call   4bf7 <_ZNSt5dequeISt4pairIPciESaIS2_EE11_S_max_sizeERKS3_>
    49a8:	c9                   	leave  
    49a9:	c3                   	ret    

00000000000049aa <_ZNSt5dequeISt4pairIPciESaIS2_EE22_M_reserve_map_at_backEm>:
    49aa:	f3 0f 1e fa          	endbr64 
    49ae:	55                   	push   %rbp
    49af:	48 89 e5             	mov    %rsp,%rbp
    49b2:	48 83 ec 10          	sub    $0x10,%rsp
    49b6:	48 89 7d f8          	mov    %rdi,-0x8(%rbp)
    49ba:	48 89 75 f0          	mov    %rsi,-0x10(%rbp)
    49be:	48 8b 45 f0          	mov    -0x10(%rbp),%rax
    49c2:	48 8d 70 01          	lea    0x1(%rax),%rsi
    49c6:	48 8b 45 f8          	mov    -0x8(%rbp),%rax
    49ca:	48 8b 50 08          	mov    0x8(%rax),%rdx
    49ce:	48 8b 45 f8          	mov    -0x8(%rbp),%rax
    49d2:	48 8b 48 48          	mov    0x48(%rax),%rcx
    49d6:	48 8b 45 f8          	mov    -0x8(%rbp),%rax
    49da:	48 8b 38             	mov    (%rax),%rdi
    49dd:	48 89 c8             	mov    %rcx,%rax
    49e0:	48 29 f8             	sub    %rdi,%rax
    49e3:	48 c1 f8 03          	sar    $0x3,%rax
    49e7:	48 89 c1             	mov    %rax,%rcx
    49ea:	48 89 d0             	mov    %rdx,%rax
    49ed:	48 29 c8             	sub    %rcx,%rax
    49f0:	48 39 c6             	cmp    %rax,%rsi
    49f3:	76 18                	jbe    4a0d <_ZNSt5dequeISt4pairIPciESaIS2_EE22_M_reserve_map_at_backEm+0x63>
    49f5:	48 8b 4d f0          	mov    -0x10(%rbp),%rcx
    49f9:	48 8b 45 f8          	mov    -0x8(%rbp),%rax
    49fd:	ba 00 00 00 00       	mov    $0x0,%edx
    4a02:	48 89 ce             	mov    %rcx,%rsi
    4a05:	48 89 c7             	mov    %rax,%rdi
    4a08:	e8 53 02 00 00       	call   4c60 <_ZNSt5dequeISt4pairIPciESaIS2_EE17_M_reallocate_mapEmb>
    4a0d:	90                   	nop
    4a0e:	c9                   	leave  
    4a0f:	c3                   	ret    

0000000000004a10 <_ZNSt15_Deque_iteratorISt4pairIPciERS2_PS2_EmmEv>:
    4a10:	f3 0f 1e fa          	endbr64 
    4a14:	55                   	push   %rbp
    4a15:	48 89 e5             	mov    %rsp,%rbp
    4a18:	48 83 ec 10          	sub    $0x10,%rsp
    4a1c:	48 89 7d f8          	mov    %rdi,-0x8(%rbp)
    4a20:	48 8b 45 f8          	mov    -0x8(%rbp),%rax
    4a24:	48 8b 10             	mov    (%rax),%rdx
    4a27:	48 8b 45 f8          	mov    -0x8(%rbp),%rax
    4a2b:	48 8b 40 08          	mov    0x8(%rax),%rax
    4a2f:	48 39 c2             	cmp    %rax,%rdx
    4a32:	75 2a                	jne    4a5e <_ZNSt15_Deque_iteratorISt4pairIPciERS2_PS2_EmmEv+0x4e>
    4a34:	48 8b 45 f8          	mov    -0x8(%rbp),%rax
    4a38:	48 8b 40 18          	mov    0x18(%rax),%rax
    4a3c:	48 8d 50 f8          	lea    -0x8(%rax),%rdx
    4a40:	48 8b 45 f8          	mov    -0x8(%rbp),%rax
    4a44:	48 89 d6             	mov    %rdx,%rsi
    4a47:	48 89 c7             	mov    %rax,%rdi
    4a4a:	e8 4d fa ff ff       	call   449c <_ZNSt15_Deque_iteratorISt4pairIPciERS2_PS2_E11_M_set_nodeEPS4_>
    4a4f:	48 8b 45 f8          	mov    -0x8(%rbp),%rax
    4a53:	48 8b 50 10          	mov    0x10(%rax),%rdx
    4a57:	48 8b 45 f8          	mov    -0x8(%rbp),%rax
    4a5b:	48 89 10             	mov    %rdx,(%rax)
    4a5e:	48 8b 45 f8          	mov    -0x8(%rbp),%rax
    4a62:	48 8b 00             	mov    (%rax),%rax
    4a65:	48 8d 50 f0          	lea    -0x10(%rax),%rdx
    4a69:	48 8b 45 f8          	mov    -0x8(%rbp),%rax
    4a6d:	48 89 10             	mov    %rdx,(%rax)
    4a70:	48 8b 45 f8          	mov    -0x8(%rbp),%rax
    4a74:	c9                   	leave  
    4a75:	c3                   	ret    

0000000000004a76 <_ZNK9__gnu_cxx13new_allocatorIPSt4pairIPciEE11_M_max_sizeEv>:
    4a76:	f3 0f 1e fa          	endbr64 
    4a7a:	55                   	push   %rbp
    4a7b:	48 89 e5             	mov    %rsp,%rbp
    4a7e:	48 89 7d f8          	mov    %rdi,-0x8(%rbp)
    4a82:	48 b8 ff ff ff ff ff 	movabs $0xfffffffffffffff,%rax
    4a89:	ff ff 0f 
    4a8c:	5d                   	pop    %rbp
    4a8d:	c3                   	ret    

0000000000004a8e <_ZN9__gnu_cxx13new_allocatorIPSt4pairIPciEE8allocateEmPKv>:
    4a8e:	f3 0f 1e fa          	endbr64 
    4a92:	55                   	push   %rbp
    4a93:	48 89 e5             	mov    %rsp,%rbp
    4a96:	48 83 ec 20          	sub    $0x20,%rsp
    4a9a:	48 89 7d f8          	mov    %rdi,-0x8(%rbp)
    4a9e:	48 89 75 f0          	mov    %rsi,-0x10(%rbp)
    4aa2:	48 89 55 e8          	mov    %rdx,-0x18(%rbp)
    4aa6:	48 8b 45 f8          	mov    -0x8(%rbp),%rax
    4aaa:	48 89 c7             	mov    %rax,%rdi
    4aad:	e8 c4 ff ff ff       	call   4a76 <_ZNK9__gnu_cxx13new_allocatorIPSt4pairIPciEE11_M_max_sizeEv>
    4ab2:	48 39 45 f0          	cmp    %rax,-0x10(%rbp)
    4ab6:	0f 97 c0             	seta   %al
    4ab9:	0f b6 c0             	movzbl %al,%eax
    4abc:	48 85 c0             	test   %rax,%rax
    4abf:	0f 95 c0             	setne  %al
    4ac2:	84 c0                	test   %al,%al
    4ac4:	74 1a                	je     4ae0 <_ZN9__gnu_cxx13new_allocatorIPSt4pairIPciEE8allocateEmPKv+0x52>
    4ac6:	48 b8 ff ff ff ff ff 	movabs $0x1fffffffffffffff,%rax
    4acd:	ff ff 1f 
    4ad0:	48 39 45 f0          	cmp    %rax,-0x10(%rbp)
    4ad4:	76 05                	jbe    4adb <_ZN9__gnu_cxx13new_allocatorIPSt4pairIPciEE8allocateEmPKv+0x4d>
    4ad6:	e8 15 c7 ff ff       	call   11f0 <_ZSt28__throw_bad_array_new_lengthv@plt>
    4adb:	e8 e0 c6 ff ff       	call   11c0 <_ZSt17__throw_bad_allocv@plt>
    4ae0:	48 8b 45 f0          	mov    -0x10(%rbp),%rax
    4ae4:	48 c1 e0 03          	shl    $0x3,%rax
    4ae8:	48 89 c7             	mov    %rax,%rdi
    4aeb:	e8 40 c7 ff ff       	call   1230 <_Znwm@plt>
    4af0:	90                   	nop
    4af1:	c9                   	leave  
    4af2:	c3                   	ret    

0000000000004af3 <_ZNSt16allocator_traitsISaISt4pairIPciEEE8allocateERS3_m>:
    4af3:	f3 0f 1e fa          	endbr64 
    4af7:	55                   	push   %rbp
    4af8:	48 89 e5             	mov    %rsp,%rbp
    4afb:	48 83 ec 10          	sub    $0x10,%rsp
    4aff:	48 89 7d f8          	mov    %rdi,-0x8(%rbp)
    4b03:	48 89 75 f0          	mov    %rsi,-0x10(%rbp)
    4b07:	48 8b 4d f0          	mov    -0x10(%rbp),%rcx
    4b0b:	48 8b 45 f8          	mov    -0x8(%rbp),%rax
    4b0f:	ba 00 00 00 00       	mov    $0x0,%edx
    4b14:	48 89 ce             	mov    %rcx,%rsi
    4b17:	48 89 c7             	mov    %rax,%rdi
    4b1a:	e8 7d 03 00 00       	call   4e9c <_ZN9__gnu_cxx13new_allocatorISt4pairIPciEE8allocateEmPKv>
    4b1f:	c9                   	leave  
    4b20:	c3                   	ret    
    4b21:	90                   	nop

0000000000004b22 <_ZN9__gnu_cxx13new_allocatorISt4pairIPciEE10deallocateEPS3_m>:
    4b22:	f3 0f 1e fa          	endbr64 
    4b26:	55                   	push   %rbp
    4b27:	48 89 e5             	mov    %rsp,%rbp
    4b2a:	48 83 ec 20          	sub    $0x20,%rsp
    4b2e:	48 89 7d f8          	mov    %rdi,-0x8(%rbp)
    4b32:	48 89 75 f0          	mov    %rsi,-0x10(%rbp)
    4b36:	48 89 55 e8          	mov    %rdx,-0x18(%rbp)
    4b3a:	48 8b 45 e8          	mov    -0x18(%rbp),%rax
    4b3e:	48 c1 e0 04          	shl    $0x4,%rax
    4b42:	48 89 c2             	mov    %rax,%rdx
    4b45:	48 8b 45 f0          	mov    -0x10(%rbp),%rax
    4b49:	48 89 d6             	mov    %rdx,%rsi
    4b4c:	48 89 c7             	mov    %rax,%rdi
    4b4f:	e8 ec c6 ff ff       	call   1240 <_ZdlPvm@plt>
    4b54:	c9                   	leave  
    4b55:	c3                   	ret    

0000000000004b56 <_ZN9__gnu_cxx13new_allocatorIPSt4pairIPciEEC1Ev>:
    4b56:	f3 0f 1e fa          	endbr64 
    4b5a:	55                   	push   %rbp
    4b5b:	48 89 e5             	mov    %rsp,%rbp
    4b5e:	48 89 7d f8          	mov    %rdi,-0x8(%rbp)
    4b62:	90                   	nop
    4b63:	5d                   	pop    %rbp
    4b64:	c3                   	ret    

0000000000004b65 <_ZStmiRKSt15_Deque_iteratorISt4pairIPciERS2_PS2_ES7_>:
    4b65:	f3 0f 1e fa          	endbr64 
    4b69:	55                   	push   %rbp
    4b6a:	48 89 e5             	mov    %rsp,%rbp
    4b6d:	48 83 ec 10          	sub    $0x10,%rsp
    4b71:	48 89 7d f8          	mov    %rdi,-0x8(%rbp)
    4b75:	48 89 75 f0          	mov    %rsi,-0x10(%rbp)
    4b79:	e8 c4 fc ff ff       	call   4842 <_ZNSt15_Deque_iteratorISt4pairIPciERS2_PS2_E14_S_buffer_sizeEv>
    4b7e:	48 89 c6             	mov    %rax,%rsi
    4b81:	48 8b 45 f8          	mov    -0x8(%rbp),%rax
    4b85:	48 8b 50 18          	mov    0x18(%rax),%rdx
    4b89:	48 8b 45 f0          	mov    -0x10(%rbp),%rax
    4b8d:	48 8b 48 18          	mov    0x18(%rax),%rcx
    4b91:	48 89 d0             	mov    %rdx,%rax
    4b94:	48 29 c8             	sub    %rcx,%rax
    4b97:	48 c1 f8 03          	sar    $0x3,%rax
    4b9b:	48 89 c1             	mov    %rax,%rcx
    4b9e:	48 8b 45 f8          	mov    -0x8(%rbp),%rax
    4ba2:	48 8b 40 18          	mov    0x18(%rax),%rax
    4ba6:	48 85 c0             	test   %rax,%rax
    4ba9:	0f 95 c0             	setne  %al
    4bac:	0f b6 d0             	movzbl %al,%edx
    4baf:	48 89 c8             	mov    %rcx,%rax
    4bb2:	48 29 d0             	sub    %rdx,%rax
    4bb5:	48 0f af f0          	imul   %rax,%rsi
    4bb9:	48 89 f1             	mov    %rsi,%rcx
    4bbc:	48 8b 45 f8          	mov    -0x8(%rbp),%rax
    4bc0:	48 8b 10             	mov    (%rax),%rdx
    4bc3:	48 8b 45 f8          	mov    -0x8(%rbp),%rax
    4bc7:	48 8b 70 08          	mov    0x8(%rax),%rsi
    4bcb:	48 89 d0             	mov    %rdx,%rax
    4bce:	48 29 f0             	sub    %rsi,%rax
    4bd1:	48 c1 f8 04          	sar    $0x4,%rax
    4bd5:	48 8d 34 01          	lea    (%rcx,%rax,1),%rsi
    4bd9:	48 8b 45 f0          	mov    -0x10(%rbp),%rax
    4bdd:	48 8b 50 10          	mov    0x10(%rax),%rdx
    4be1:	48 8b 45 f0          	mov    -0x10(%rbp),%rax
    4be5:	48 8b 08             	mov    (%rax),%rcx
    4be8:	48 89 d0             	mov    %rdx,%rax
    4beb:	48 29 c8             	sub    %rcx,%rax
    4bee:	48 c1 f8 04          	sar    $0x4,%rax
    4bf2:	48 01 f0             	add    %rsi,%rax
    4bf5:	c9                   	leave  
    4bf6:	c3                   	ret    

0000000000004bf7 <_ZNSt5dequeISt4pairIPciESaIS2_EE11_S_max_sizeERKS3_>:
    4bf7:	f3 0f 1e fa          	endbr64 
    4bfb:	55                   	push   %rbp
    4bfc:	48 89 e5             	mov    %rsp,%rbp
    4bff:	48 83 ec 30          	sub    $0x30,%rsp
    4c03:	48 89 7d d8          	mov    %rdi,-0x28(%rbp)
    4c07:	64 48 8b 04 25 28 00 	mov    %fs:0x28,%rax
    4c0e:	00 00 
    4c10:	48 89 45 f8          	mov    %rax,-0x8(%rbp)
    4c14:	31 c0                	xor    %eax,%eax
    4c16:	48 b8 ff ff ff ff ff 	movabs $0x7fffffffffffffff,%rax
    4c1d:	ff ff 7f 
    4c20:	48 89 45 e8          	mov    %rax,-0x18(%rbp)
    4c24:	48 8b 45 d8          	mov    -0x28(%rbp),%rax
    4c28:	48 89 c7             	mov    %rax,%rdi
    4c2b:	e8 d1 02 00 00       	call   4f01 <_ZNSt16allocator_traitsISaISt4pairIPciEEE8max_sizeERKS3_>
    4c30:	48 89 45 f0          	mov    %rax,-0x10(%rbp)
    4c34:	48 8d 55 f0          	lea    -0x10(%rbp),%rdx
    4c38:	48 8d 45 e8          	lea    -0x18(%rbp),%rax
    4c3c:	48 89 d6             	mov    %rdx,%rsi
    4c3f:	48 89 c7             	mov    %rax,%rdi
    4c42:	e8 d8 02 00 00       	call   4f1f <_ZSt3minImERKT_S2_S2_>
    4c47:	48 8b 00             	mov    (%rax),%rax
    4c4a:	48 8b 55 f8          	mov    -0x8(%rbp),%rdx
    4c4e:	64 48 2b 14 25 28 00 	sub    %fs:0x28,%rdx
    4c55:	00 00 
    4c57:	74 05                	je     4c5e <_ZNSt5dequeISt4pairIPciESaIS2_EE11_S_max_sizeERKS3_+0x67>
    4c59:	e8 f2 c5 ff ff       	call   1250 <__stack_chk_fail@plt>
    4c5e:	c9                   	leave  
    4c5f:	c3                   	ret    

0000000000004c60 <_ZNSt5dequeISt4pairIPciESaIS2_EE17_M_reallocate_mapEmb>:
    4c60:	f3 0f 1e fa          	endbr64 
    4c64:	55                   	push   %rbp
    4c65:	48 89 e5             	mov    %rsp,%rbp
    4c68:	53                   	push   %rbx
    4c69:	48 83 ec 58          	sub    $0x58,%rsp
    4c6d:	48 89 7d b8          	mov    %rdi,-0x48(%rbp)
    4c71:	48 89 75 b0          	mov    %rsi,-0x50(%rbp)
    4c75:	89 d0                	mov    %edx,%eax
    4c77:	88 45 ac             	mov    %al,-0x54(%rbp)
    4c7a:	48 8b 45 b8          	mov    -0x48(%rbp),%rax
    4c7e:	48 8b 50 48          	mov    0x48(%rax),%rdx
    4c82:	48 8b 45 b8          	mov    -0x48(%rbp),%rax
    4c86:	48 8b 48 28          	mov    0x28(%rax),%rcx
    4c8a:	48 89 d0             	mov    %rdx,%rax
    4c8d:	48 29 c8             	sub    %rcx,%rax
    4c90:	48 c1 f8 03          	sar    $0x3,%rax
    4c94:	48 83 c0 01          	add    $0x1,%rax
    4c98:	48 89 45 d0          	mov    %rax,-0x30(%rbp)
    4c9c:	48 8b 55 b0          	mov    -0x50(%rbp),%rdx
    4ca0:	48 8b 45 d0          	mov    -0x30(%rbp),%rax
    4ca4:	48 01 d0             	add    %rdx,%rax
    4ca7:	48 89 45 d8          	mov    %rax,-0x28(%rbp)
    4cab:	48 8b 45 b8          	mov    -0x48(%rbp),%rax
    4caf:	48 8b 40 08          	mov    0x8(%rax),%rax
    4cb3:	48 8b 55 d8          	mov    -0x28(%rbp),%rdx
    4cb7:	48 01 d2             	add    %rdx,%rdx
    4cba:	48 39 d0             	cmp    %rdx,%rax
    4cbd:	0f 86 aa 00 00 00    	jbe    4d6d <_ZNSt5dequeISt4pairIPciESaIS2_EE17_M_reallocate_mapEmb+0x10d>
    4cc3:	48 8b 45 b8          	mov    -0x48(%rbp),%rax
    4cc7:	48 8b 10             	mov    (%rax),%rdx
    4cca:	48 8b 45 b8          	mov    -0x48(%rbp),%rax
    4cce:	48 8b 40 08          	mov    0x8(%rax),%rax
    4cd2:	48 2b 45 d8          	sub    -0x28(%rbp),%rax
    4cd6:	48 d1 e8             	shr    %rax
    4cd9:	48 8d 0c c5 00 00 00 	lea    0x0(,%rax,8),%rcx
    4ce0:	00 
    4ce1:	80 7d ac 00          	cmpb   $0x0,-0x54(%rbp)
    4ce5:	74 0a                	je     4cf1 <_ZNSt5dequeISt4pairIPciESaIS2_EE17_M_reallocate_mapEmb+0x91>
    4ce7:	48 8b 45 b0          	mov    -0x50(%rbp),%rax
    4ceb:	48 c1 e0 03          	shl    $0x3,%rax
    4cef:	eb 05                	jmp    4cf6 <_ZNSt5dequeISt4pairIPciESaIS2_EE17_M_reallocate_mapEmb+0x96>
    4cf1:	b8 00 00 00 00       	mov    $0x0,%eax
    4cf6:	48 01 c8             	add    %rcx,%rax
    4cf9:	48 01 d0             	add    %rdx,%rax
    4cfc:	48 89 45 c8          	mov    %rax,-0x38(%rbp)
    4d00:	48 8b 45 b8          	mov    -0x48(%rbp),%rax
    4d04:	48 8b 40 28          	mov    0x28(%rax),%rax
    4d08:	48 39 45 c8          	cmp    %rax,-0x38(%rbp)
    4d0c:	73 28                	jae    4d36 <_ZNSt5dequeISt4pairIPciESaIS2_EE17_M_reallocate_mapEmb+0xd6>
    4d0e:	48 8b 45 b8          	mov    -0x48(%rbp),%rax
    4d12:	48 8b 40 48          	mov    0x48(%rax),%rax
    4d16:	48 8d 48 08          	lea    0x8(%rax),%rcx
    4d1a:	48 8b 45 b8          	mov    -0x48(%rbp),%rax
    4d1e:	48 8b 40 28          	mov    0x28(%rax),%rax
    4d22:	48 8b 55 c8          	mov    -0x38(%rbp),%rdx
    4d26:	48 89 ce             	mov    %rcx,%rsi
    4d29:	48 89 c7             	mov    %rax,%rdi
    4d2c:	e8 1d 02 00 00       	call   4f4e <_ZSt4copyIPPSt4pairIPciES4_ET0_T_S6_S5_>
    4d31:	e9 09 01 00 00       	jmp    4e3f <_ZNSt5dequeISt4pairIPciESaIS2_EE17_M_reallocate_mapEmb+0x1df>
    4d36:	48 8b 45 d0          	mov    -0x30(%rbp),%rax
    4d3a:	48 8d 14 c5 00 00 00 	lea    0x0(,%rax,8),%rdx
    4d41:	00 
    4d42:	48 8b 45 c8          	mov    -0x38(%rbp),%rax
    4d46:	48 01 c2             	add    %rax,%rdx
    4d49:	48 8b 45 b8          	mov    -0x48(%rbp),%rax
    4d4d:	48 8b 40 48          	mov    0x48(%rax),%rax
    4d51:	48 8d 48 08          	lea    0x8(%rax),%rcx
    4d55:	48 8b 45 b8          	mov    -0x48(%rbp),%rax
    4d59:	48 8b 40 28          	mov    0x28(%rax),%rax
    4d5d:	48 89 ce             	mov    %rcx,%rsi
    4d60:	48 89 c7             	mov    %rax,%rdi
    4d63:	e8 35 02 00 00       	call   4f9d <_ZSt13copy_backwardIPPSt4pairIPciES4_ET0_T_S6_S5_>
    4d68:	e9 d2 00 00 00       	jmp    4e3f <_ZNSt5dequeISt4pairIPciESaIS2_EE17_M_reallocate_mapEmb+0x1df>
    4d6d:	48 8b 45 b8          	mov    -0x48(%rbp),%rax
    4d71:	48 8b 58 08          	mov    0x8(%rax),%rbx
    4d75:	48 8b 45 b8          	mov    -0x48(%rbp),%rax
    4d79:	48 8d 50 08          	lea    0x8(%rax),%rdx
    4d7d:	48 8d 45 b0          	lea    -0x50(%rbp),%rax
    4d81:	48 89 c6             	mov    %rax,%rsi
    4d84:	48 89 d7             	mov    %rdx,%rdi
    4d87:	e8 bd f5 ff ff       	call   4349 <_ZSt3maxImERKT_S2_S2_>
    4d8c:	48 8b 00             	mov    (%rax),%rax
    4d8f:	48 01 d8             	add    %rbx,%rax
    4d92:	48 83 c0 02          	add    $0x2,%rax
    4d96:	48 89 45 e0          	mov    %rax,-0x20(%rbp)
    4d9a:	48 8b 45 b8          	mov    -0x48(%rbp),%rax
    4d9e:	48 8b 55 e0          	mov    -0x20(%rbp),%rdx
    4da2:	48 89 d6             	mov    %rdx,%rsi
    4da5:	48 89 c7             	mov    %rax,%rdi
    4da8:	e8 cb f5 ff ff       	call   4378 <_ZNSt11_Deque_baseISt4pairIPciESaIS2_EE15_M_allocate_mapEm>
    4dad:	48 89 45 e8          	mov    %rax,-0x18(%rbp)
    4db1:	48 8b 45 e0          	mov    -0x20(%rbp),%rax
    4db5:	48 2b 45 d8          	sub    -0x28(%rbp),%rax
    4db9:	48 d1 e8             	shr    %rax
    4dbc:	48 8d 14 c5 00 00 00 	lea    0x0(,%rax,8),%rdx
    4dc3:	00 
    4dc4:	80 7d ac 00          	cmpb   $0x0,-0x54(%rbp)
    4dc8:	74 0a                	je     4dd4 <_ZNSt5dequeISt4pairIPciESaIS2_EE17_M_reallocate_mapEmb+0x174>
    4dca:	48 8b 45 b0          	mov    -0x50(%rbp),%rax
    4dce:	48 c1 e0 03          	shl    $0x3,%rax
    4dd2:	eb 05                	jmp    4dd9 <_ZNSt5dequeISt4pairIPciESaIS2_EE17_M_reallocate_mapEmb+0x179>
    4dd4:	b8 00 00 00 00       	mov    $0x0,%eax
    4dd9:	48 01 c2             	add    %rax,%rdx
    4ddc:	48 8b 45 e8          	mov    -0x18(%rbp),%rax
    4de0:	48 01 d0             	add    %rdx,%rax
    4de3:	48 89 45 c8          	mov    %rax,-0x38(%rbp)
    4de7:	48 8b 45 b8          	mov    -0x48(%rbp),%rax
    4deb:	48 8b 40 48          	mov    0x48(%rax),%rax
    4def:	48 8d 48 08          	lea    0x8(%rax),%rcx
    4df3:	48 8b 45 b8          	mov    -0x48(%rbp),%rax
    4df7:	48 8b 40 28          	mov    0x28(%rax),%rax
    4dfb:	48 8b 55 c8          	mov    -0x38(%rbp),%rdx
    4dff:	48 89 ce             	mov    %rcx,%rsi
    4e02:	48 89 c7             	mov    %rax,%rdi
    4e05:	e8 44 01 00 00       	call   4f4e <_ZSt4copyIPPSt4pairIPciES4_ET0_T_S6_S5_>
    4e0a:	48 8b 45 b8          	mov    -0x48(%rbp),%rax
    4e0e:	48 8b 55 b8          	mov    -0x48(%rbp),%rdx
    4e12:	48 8b 52 08          	mov    0x8(%rdx),%rdx
    4e16:	48 8b 4d b8          	mov    -0x48(%rbp),%rcx
    4e1a:	48 8b 09             	mov    (%rcx),%rcx
    4e1d:	48 89 ce             	mov    %rcx,%rsi
    4e20:	48 89 c7             	mov    %rax,%rdi
    4e23:	e8 28 f2 ff ff       	call   4050 <_ZNSt11_Deque_baseISt4pairIPciESaIS2_EE17_M_deallocate_mapEPPS2_m>
    4e28:	48 8b 45 b8          	mov    -0x48(%rbp),%rax
    4e2c:	48 8b 55 e8          	mov    -0x18(%rbp),%rdx
    4e30:	48 89 10             	mov    %rdx,(%rax)
    4e33:	48 8b 45 b8          	mov    -0x48(%rbp),%rax
    4e37:	48 8b 55 e0          	mov    -0x20(%rbp),%rdx
    4e3b:	48 89 50 08          	mov    %rdx,0x8(%rax)
    4e3f:	48 8b 45 b8          	mov    -0x48(%rbp),%rax
    4e43:	48 8d 50 10          	lea    0x10(%rax),%rdx
    4e47:	48 8b 45 c8          	mov    -0x38(%rbp),%rax
    4e4b:	48 89 c6             	mov    %rax,%rsi
    4e4e:	48 89 d7             	mov    %rdx,%rdi
    4e51:	e8 46 f6 ff ff       	call   449c <_ZNSt15_Deque_iteratorISt4pairIPciERS2_PS2_E11_M_set_nodeEPS4_>
    4e56:	48 8b 45 b8          	mov    -0x48(%rbp),%rax
    4e5a:	48 83 c0 30          	add    $0x30,%rax
    4e5e:	48 8b 55 d0          	mov    -0x30(%rbp),%rdx
    4e62:	48 c1 e2 03          	shl    $0x3,%rdx
    4e66:	48 8d 4a f8          	lea    -0x8(%rdx),%rcx
    4e6a:	48 8b 55 c8          	mov    -0x38(%rbp),%rdx
    4e6e:	48 01 ca             	add    %rcx,%rdx
    4e71:	48 89 d6             	mov    %rdx,%rsi
    4e74:	48 89 c7             	mov    %rax,%rdi
    4e77:	e8 20 f6 ff ff       	call   449c <_ZNSt15_Deque_iteratorISt4pairIPciERS2_PS2_E11_M_set_nodeEPS4_>
    4e7c:	90                   	nop
    4e7d:	48 8b 5d f8          	mov    -0x8(%rbp),%rbx
    4e81:	c9                   	leave  
    4e82:	c3                   	ret    
    4e83:	90                   	nop

0000000000004e84 <_ZNK9__gnu_cxx13new_allocatorISt4pairIPciEE11_M_max_sizeEv>:
    4e84:	f3 0f 1e fa          	endbr64 
    4e88:	55                   	push   %rbp
    4e89:	48 89 e5             	mov    %rsp,%rbp
    4e8c:	48 89 7d f8          	mov    %rdi,-0x8(%rbp)
    4e90:	48 b8 ff ff ff ff ff 	movabs $0x7ffffffffffffff,%rax
    4e97:	ff ff 07 
    4e9a:	5d                   	pop    %rbp
    4e9b:	c3                   	ret    

0000000000004e9c <_ZN9__gnu_cxx13new_allocatorISt4pairIPciEE8allocateEmPKv>:
    4e9c:	f3 0f 1e fa          	endbr64 
    4ea0:	55                   	push   %rbp
    4ea1:	48 89 e5             	mov    %rsp,%rbp
    4ea4:	48 83 ec 20          	sub    $0x20,%rsp
    4ea8:	48 89 7d f8          	mov    %rdi,-0x8(%rbp)
    4eac:	48 89 75 f0          	mov    %rsi,-0x10(%rbp)
    4eb0:	48 89 55 e8          	mov    %rdx,-0x18(%rbp)
    4eb4:	48 8b 45 f8          	mov    -0x8(%rbp),%rax
    4eb8:	48 89 c7             	mov    %rax,%rdi
    4ebb:	e8 c4 ff ff ff       	call   4e84 <_ZNK9__gnu_cxx13new_allocatorISt4pairIPciEE11_M_max_sizeEv>
    4ec0:	48 39 45 f0          	cmp    %rax,-0x10(%rbp)
    4ec4:	0f 97 c0             	seta   %al
    4ec7:	0f b6 c0             	movzbl %al,%eax
    4eca:	48 85 c0             	test   %rax,%rax
    4ecd:	0f 95 c0             	setne  %al
    4ed0:	84 c0                	test   %al,%al
    4ed2:	74 1a                	je     4eee <_ZN9__gnu_cxx13new_allocatorISt4pairIPciEE8allocateEmPKv+0x52>
    4ed4:	48 b8 ff ff ff ff ff 	movabs $0xfffffffffffffff,%rax
    4edb:	ff ff 0f 
    4ede:	48 39 45 f0          	cmp    %rax,-0x10(%rbp)
    4ee2:	76 05                	jbe    4ee9 <_ZN9__gnu_cxx13new_allocatorISt4pairIPciEE8allocateEmPKv+0x4d>
    4ee4:	e8 07 c3 ff ff       	call   11f0 <_ZSt28__throw_bad_array_new_lengthv@plt>
    4ee9:	e8 d2 c2 ff ff       	call   11c0 <_ZSt17__throw_bad_allocv@plt>
    4eee:	48 8b 45 f0          	mov    -0x10(%rbp),%rax
    4ef2:	48 c1 e0 04          	shl    $0x4,%rax
    4ef6:	48 89 c7             	mov    %rax,%rdi
    4ef9:	e8 32 c3 ff ff       	call   1230 <_Znwm@plt>
    4efe:	90                   	nop
    4eff:	c9                   	leave  
    4f00:	c3                   	ret    

0000000000004f01 <_ZNSt16allocator_traitsISaISt4pairIPciEEE8max_sizeERKS3_>:
    4f01:	f3 0f 1e fa          	endbr64 
    4f05:	55                   	push   %rbp
    4f06:	48 89 e5             	mov    %rsp,%rbp
    4f09:	48 83 ec 10          	sub    $0x10,%rsp
    4f0d:	48 89 7d f8          	mov    %rdi,-0x8(%rbp)
    4f11:	48 8b 45 f8          	mov    -0x8(%rbp),%rax
    4f15:	48 89 c7             	mov    %rax,%rdi
    4f18:	e8 cf 00 00 00       	call   4fec <_ZNK9__gnu_cxx13new_allocatorISt4pairIPciEE8max_sizeEv>
    4f1d:	c9                   	leave  
    4f1e:	c3                   	ret    

0000000000004f1f <_ZSt3minImERKT_S2_S2_>:
    4f1f:	f3 0f 1e fa          	endbr64 
    4f23:	55                   	push   %rbp
    4f24:	48 89 e5             	mov    %rsp,%rbp
    4f27:	48 89 7d f8          	mov    %rdi,-0x8(%rbp)
    4f2b:	48 89 75 f0          	mov    %rsi,-0x10(%rbp)
    4f2f:	48 8b 45 f0          	mov    -0x10(%rbp),%rax
    4f33:	48 8b 10             	mov    (%rax),%rdx
    4f36:	48 8b 45 f8          	mov    -0x8(%rbp),%rax
    4f3a:	48 8b 00             	mov    (%rax),%rax
    4f3d:	48 39 c2             	cmp    %rax,%rdx
    4f40:	73 06                	jae    4f48 <_ZSt3minImERKT_S2_S2_+0x29>
    4f42:	48 8b 45 f0          	mov    -0x10(%rbp),%rax
    4f46:	eb 04                	jmp    4f4c <_ZSt3minImERKT_S2_S2_+0x2d>
    4f48:	48 8b 45 f8          	mov    -0x8(%rbp),%rax
    4f4c:	5d                   	pop    %rbp
    4f4d:	c3                   	ret    

0000000000004f4e <_ZSt4copyIPPSt4pairIPciES4_ET0_T_S6_S5_>:
    4f4e:	f3 0f 1e fa          	endbr64 
    4f52:	55                   	push   %rbp
    4f53:	48 89 e5             	mov    %rsp,%rbp
    4f56:	53                   	push   %rbx
    4f57:	48 83 ec 28          	sub    $0x28,%rsp
    4f5b:	48 89 7d e8          	mov    %rdi,-0x18(%rbp)
    4f5f:	48 89 75 e0          	mov    %rsi,-0x20(%rbp)
    4f63:	48 89 55 d8          	mov    %rdx,-0x28(%rbp)
    4f67:	48 8b 45 e0          	mov    -0x20(%rbp),%rax
    4f6b:	48 89 c7             	mov    %rax,%rdi
    4f6e:	e8 97 00 00 00       	call   500a <_ZSt12__miter_baseIPPSt4pairIPciEET_S5_>
    4f73:	48 89 c3             	mov    %rax,%rbx
    4f76:	48 8b 45 e8          	mov    -0x18(%rbp),%rax
    4f7a:	48 89 c7             	mov    %rax,%rdi
    4f7d:	e8 88 00 00 00       	call   500a <_ZSt12__miter_baseIPPSt4pairIPciEET_S5_>
    4f82:	48 89 c1             	mov    %rax,%rcx
    4f85:	48 8b 45 d8          	mov    -0x28(%rbp),%rax
    4f89:	48 89 c2             	mov    %rax,%rdx
    4f8c:	48 89 de             	mov    %rbx,%rsi
    4f8f:	48 89 cf             	mov    %rcx,%rdi
    4f92:	e8 85 00 00 00       	call   501c <_ZSt13__copy_move_aILb0EPPSt4pairIPciES4_ET1_T0_S6_S5_>
    4f97:	48 8b 5d f8          	mov    -0x8(%rbp),%rbx
    4f9b:	c9                   	leave  
    4f9c:	c3                   	ret    

0000000000004f9d <_ZSt13copy_backwardIPPSt4pairIPciES4_ET0_T_S6_S5_>:
    4f9d:	f3 0f 1e fa          	endbr64 
    4fa1:	55                   	push   %rbp
    4fa2:	48 89 e5             	mov    %rsp,%rbp
    4fa5:	53                   	push   %rbx
    4fa6:	48 83 ec 28          	sub    $0x28,%rsp
    4faa:	48 89 7d e8          	mov    %rdi,-0x18(%rbp)
    4fae:	48 89 75 e0          	mov    %rsi,-0x20(%rbp)
    4fb2:	48 89 55 d8          	mov    %rdx,-0x28(%rbp)
    4fb6:	48 8b 45 e0          	mov    -0x20(%rbp),%rax
    4fba:	48 89 c7             	mov    %rax,%rdi
    4fbd:	e8 48 00 00 00       	call   500a <_ZSt12__miter_baseIPPSt4pairIPciEET_S5_>
    4fc2:	48 89 c3             	mov    %rax,%rbx
    4fc5:	48 8b 45 e8          	mov    -0x18(%rbp),%rax
    4fc9:	48 89 c7             	mov    %rax,%rdi
    4fcc:	e8 39 00 00 00       	call   500a <_ZSt12__miter_baseIPPSt4pairIPciEET_S5_>
    4fd1:	48 89 c1             	mov    %rax,%rcx
    4fd4:	48 8b 45 d8          	mov    -0x28(%rbp),%rax
    4fd8:	48 89 c2             	mov    %rax,%rdx
    4fdb:	48 89 de             	mov    %rbx,%rsi
    4fde:	48 89 cf             	mov    %rcx,%rdi
    4fe1:	e8 a4 00 00 00       	call   508a <_ZSt22__copy_move_backward_aILb0EPPSt4pairIPciES4_ET1_T0_S6_S5_>
    4fe6:	48 8b 5d f8          	mov    -0x8(%rbp),%rbx
    4fea:	c9                   	leave  
    4feb:	c3                   	ret    

0000000000004fec <_ZNK9__gnu_cxx13new_allocatorISt4pairIPciEE8max_sizeEv>:
    4fec:	f3 0f 1e fa          	endbr64 
    4ff0:	55                   	push   %rbp
    4ff1:	48 89 e5             	mov    %rsp,%rbp
    4ff4:	48 83 ec 10          	sub    $0x10,%rsp
    4ff8:	48 89 7d f8          	mov    %rdi,-0x8(%rbp)
    4ffc:	48 8b 45 f8          	mov    -0x8(%rbp),%rax
    5000:	48 89 c7             	mov    %rax,%rdi
    5003:	e8 7c fe ff ff       	call   4e84 <_ZNK9__gnu_cxx13new_allocatorISt4pairIPciEE11_M_max_sizeEv>
    5008:	c9                   	leave  
    5009:	c3                   	ret    

000000000000500a <_ZSt12__miter_baseIPPSt4pairIPciEET_S5_>:
    500a:	f3 0f 1e fa          	endbr64 
    500e:	55                   	push   %rbp
    500f:	48 89 e5             	mov    %rsp,%rbp
    5012:	48 89 7d f8          	mov    %rdi,-0x8(%rbp)
    5016:	48 8b 45 f8          	mov    -0x8(%rbp),%rax
    501a:	5d                   	pop    %rbp
    501b:	c3                   	ret    

000000000000501c <_ZSt13__copy_move_aILb0EPPSt4pairIPciES4_ET1_T0_S6_S5_>:
    501c:	f3 0f 1e fa          	endbr64 
    5020:	55                   	push   %rbp
    5021:	48 89 e5             	mov    %rsp,%rbp
    5024:	41 54                	push   %r12
    5026:	53                   	push   %rbx
    5027:	48 83 ec 20          	sub    $0x20,%rsp
    502b:	48 89 7d e8          	mov    %rdi,-0x18(%rbp)
    502f:	48 89 75 e0          	mov    %rsi,-0x20(%rbp)
    5033:	48 89 55 d8          	mov    %rdx,-0x28(%rbp)
    5037:	48 8b 45 d8          	mov    -0x28(%rbp),%rax
    503b:	48 89 c7             	mov    %rax,%rdi
    503e:	e8 b5 00 00 00       	call   50f8 <_ZSt12__niter_baseIPPSt4pairIPciEET_S5_>
    5043:	49 89 c4             	mov    %rax,%r12
    5046:	48 8b 45 e0          	mov    -0x20(%rbp),%rax
    504a:	48 89 c7             	mov    %rax,%rdi
    504d:	e8 a6 00 00 00       	call   50f8 <_ZSt12__niter_baseIPPSt4pairIPciEET_S5_>
    5052:	48 89 c3             	mov    %rax,%rbx
    5055:	48 8b 45 e8          	mov    -0x18(%rbp),%rax
    5059:	48 89 c7             	mov    %rax,%rdi
    505c:	e8 97 00 00 00       	call   50f8 <_ZSt12__niter_baseIPPSt4pairIPciEET_S5_>
    5061:	4c 89 e2             	mov    %r12,%rdx
    5064:	48 89 de             	mov    %rbx,%rsi
    5067:	48 89 c7             	mov    %rax,%rdi
    506a:	e8 9b 00 00 00       	call   510a <_ZSt14__copy_move_a1ILb0EPPSt4pairIPciES4_ET1_T0_S6_S5_>
    506f:	48 89 c2             	mov    %rax,%rdx
    5072:	48 8d 45 d8          	lea    -0x28(%rbp),%rax
    5076:	48 89 d6             	mov    %rdx,%rsi
    5079:	48 89 c7             	mov    %rax,%rdi
    507c:	e8 ba 00 00 00       	call   513b <_ZSt12__niter_wrapIPPSt4pairIPciEET_RKS5_S5_>
    5081:	48 83 c4 20          	add    $0x20,%rsp
    5085:	5b                   	pop    %rbx
    5086:	41 5c                	pop    %r12
    5088:	5d                   	pop    %rbp
    5089:	c3                   	ret    

000000000000508a <_ZSt22__copy_move_backward_aILb0EPPSt4pairIPciES4_ET1_T0_S6_S5_>:
    508a:	f3 0f 1e fa          	endbr64 
    508e:	55                   	push   %rbp
    508f:	48 89 e5             	mov    %rsp,%rbp
    5092:	41 54                	push   %r12
    5094:	53                   	push   %rbx
    5095:	48 83 ec 20          	sub    $0x20,%rsp
    5099:	48 89 7d e8          	mov    %rdi,-0x18(%rbp)
    509d:	48 89 75 e0          	mov    %rsi,-0x20(%rbp)
    50a1:	48 89 55 d8          	mov    %rdx,-0x28(%rbp)
    50a5:	48 8b 45 d8          	mov    -0x28(%rbp),%rax
    50a9:	48 89 c7             	mov    %rax,%rdi
    50ac:	e8 47 00 00 00       	call   50f8 <_ZSt12__niter_baseIPPSt4pairIPciEET_S5_>
    50b1:	49 89 c4             	mov    %rax,%r12
    50b4:	48 8b 45 e0          	mov    -0x20(%rbp),%rax
    50b8:	48 89 c7             	mov    %rax,%rdi
    50bb:	e8 38 00 00 00       	call   50f8 <_ZSt12__niter_baseIPPSt4pairIPciEET_S5_>
    50c0:	48 89 c3             	mov    %rax,%rbx
    50c3:	48 8b 45 e8          	mov    -0x18(%rbp),%rax
    50c7:	48 89 c7             	mov    %rax,%rdi
    50ca:	e8 29 00 00 00       	call   50f8 <_ZSt12__niter_baseIPPSt4pairIPciEET_S5_>
    50cf:	4c 89 e2             	mov    %r12,%rdx
    50d2:	48 89 de             	mov    %rbx,%rsi
    50d5:	48 89 c7             	mov    %rax,%rdi
    50d8:	e8 74 00 00 00       	call   5151 <_ZSt23__copy_move_backward_a1ILb0EPPSt4pairIPciES4_ET1_T0_S6_S5_>
    50dd:	48 89 c2             	mov    %rax,%rdx
    50e0:	48 8d 45 d8          	lea    -0x28(%rbp),%rax
    50e4:	48 89 d6             	mov    %rdx,%rsi
    50e7:	48 89 c7             	mov    %rax,%rdi
    50ea:	e8 4c 00 00 00       	call   513b <_ZSt12__niter_wrapIPPSt4pairIPciEET_RKS5_S5_>
    50ef:	48 83 c4 20          	add    $0x20,%rsp
    50f3:	5b                   	pop    %rbx
    50f4:	41 5c                	pop    %r12
    50f6:	5d                   	pop    %rbp
    50f7:	c3                   	ret    

00000000000050f8 <_ZSt12__niter_baseIPPSt4pairIPciEET_S5_>:
    50f8:	f3 0f 1e fa          	endbr64 
    50fc:	55                   	push   %rbp
    50fd:	48 89 e5             	mov    %rsp,%rbp
    5100:	48 89 7d f8          	mov    %rdi,-0x8(%rbp)
    5104:	48 8b 45 f8          	mov    -0x8(%rbp),%rax
    5108:	5d                   	pop    %rbp
    5109:	c3                   	ret    

000000000000510a <_ZSt14__copy_move_a1ILb0EPPSt4pairIPciES4_ET1_T0_S6_S5_>:
    510a:	f3 0f 1e fa          	endbr64 
    510e:	55                   	push   %rbp
    510f:	48 89 e5             	mov    %rsp,%rbp
    5112:	48 83 ec 20          	sub    $0x20,%rsp
    5116:	48 89 7d f8          	mov    %rdi,-0x8(%rbp)
    511a:	48 89 75 f0          	mov    %rsi,-0x10(%rbp)
    511e:	48 89 55 e8          	mov    %rdx,-0x18(%rbp)
    5122:	48 8b 55 e8          	mov    -0x18(%rbp),%rdx
    5126:	48 8b 4d f0          	mov    -0x10(%rbp),%rcx
    512a:	48 8b 45 f8          	mov    -0x8(%rbp),%rax
    512e:	48 89 ce             	mov    %rcx,%rsi
    5131:	48 89 c7             	mov    %rax,%rdi
    5134:	e8 49 00 00 00       	call   5182 <_ZSt14__copy_move_a2ILb0EPPSt4pairIPciES4_ET1_T0_S6_S5_>
    5139:	c9                   	leave  
    513a:	c3                   	ret    

000000000000513b <_ZSt12__niter_wrapIPPSt4pairIPciEET_RKS5_S5_>:
    513b:	f3 0f 1e fa          	endbr64 
    513f:	55                   	push   %rbp
    5140:	48 89 e5             	mov    %rsp,%rbp
    5143:	48 89 7d f8          	mov    %rdi,-0x8(%rbp)
    5147:	48 89 75 f0          	mov    %rsi,-0x10(%rbp)
    514b:	48 8b 45 f0          	mov    -0x10(%rbp),%rax
    514f:	5d                   	pop    %rbp
    5150:	c3                   	ret    

0000000000005151 <_ZSt23__copy_move_backward_a1ILb0EPPSt4pairIPciES4_ET1_T0_S6_S5_>:
    5151:	f3 0f 1e fa          	endbr64 
    5155:	55                   	push   %rbp
    5156:	48 89 e5             	mov    %rsp,%rbp
    5159:	48 83 ec 20          	sub    $0x20,%rsp
    515d:	48 89 7d f8          	mov    %rdi,-0x8(%rbp)
    5161:	48 89 75 f0          	mov    %rsi,-0x10(%rbp)
    5165:	48 89 55 e8          	mov    %rdx,-0x18(%rbp)
    5169:	48 8b 55 e8          	mov    -0x18(%rbp),%rdx
    516d:	48 8b 4d f0          	mov    -0x10(%rbp),%rcx
    5171:	48 8b 45 f8          	mov    -0x8(%rbp),%rax
    5175:	48 89 ce             	mov    %rcx,%rsi
    5178:	48 89 c7             	mov    %rax,%rdi
    517b:	e8 33 00 00 00       	call   51b3 <_ZSt23__copy_move_backward_a2ILb0EPPSt4pairIPciES4_ET1_T0_S6_S5_>
    5180:	c9                   	leave  
    5181:	c3                   	ret    

0000000000005182 <_ZSt14__copy_move_a2ILb0EPPSt4pairIPciES4_ET1_T0_S6_S5_>:
    5182:	f3 0f 1e fa          	endbr64 
    5186:	55                   	push   %rbp
    5187:	48 89 e5             	mov    %rsp,%rbp
    518a:	48 83 ec 20          	sub    $0x20,%rsp
    518e:	48 89 7d f8          	mov    %rdi,-0x8(%rbp)
    5192:	48 89 75 f0          	mov    %rsi,-0x10(%rbp)
    5196:	48 89 55 e8          	mov    %rdx,-0x18(%rbp)
    519a:	48 8b 55 e8          	mov    -0x18(%rbp),%rdx
    519e:	48 8b 4d f0          	mov    -0x10(%rbp),%rcx
    51a2:	48 8b 45 f8          	mov    -0x8(%rbp),%rax
    51a6:	48 89 ce             	mov    %rcx,%rsi
    51a9:	48 89 c7             	mov    %rax,%rdi
    51ac:	e8 33 00 00 00       	call   51e4 <_ZNSt11__copy_moveILb0ELb1ESt26random_access_iterator_tagE8__copy_mIPSt4pairIPciEEEPT_PKS7_SA_S8_>
    51b1:	c9                   	leave  
    51b2:	c3                   	ret    

00000000000051b3 <_ZSt23__copy_move_backward_a2ILb0EPPSt4pairIPciES4_ET1_T0_S6_S5_>:
    51b3:	f3 0f 1e fa          	endbr64 
    51b7:	55                   	push   %rbp
    51b8:	48 89 e5             	mov    %rsp,%rbp
    51bb:	48 83 ec 20          	sub    $0x20,%rsp
    51bf:	48 89 7d f8          	mov    %rdi,-0x8(%rbp)
    51c3:	48 89 75 f0          	mov    %rsi,-0x10(%rbp)
    51c7:	48 89 55 e8          	mov    %rdx,-0x18(%rbp)
    51cb:	48 8b 55 e8          	mov    -0x18(%rbp),%rdx
    51cf:	48 8b 4d f0          	mov    -0x10(%rbp),%rcx
    51d3:	48 8b 45 f8          	mov    -0x8(%rbp),%rax
    51d7:	48 89 ce             	mov    %rcx,%rsi
    51da:	48 89 c7             	mov    %rax,%rdi
    51dd:	e8 65 00 00 00       	call   5247 <_ZNSt20__copy_move_backwardILb0ELb1ESt26random_access_iterator_tagE13__copy_move_bIPSt4pairIPciEEEPT_PKS7_SA_S8_>
    51e2:	c9                   	leave  
    51e3:	c3                   	ret    

00000000000051e4 <_ZNSt11__copy_moveILb0ELb1ESt26random_access_iterator_tagE8__copy_mIPSt4pairIPciEEEPT_PKS7_SA_S8_>:
    51e4:	f3 0f 1e fa          	endbr64 
    51e8:	55                   	push   %rbp
    51e9:	48 89 e5             	mov    %rsp,%rbp
    51ec:	48 83 ec 30          	sub    $0x30,%rsp
    51f0:	48 89 7d e8          	mov    %rdi,-0x18(%rbp)
    51f4:	48 89 75 e0          	mov    %rsi,-0x20(%rbp)
    51f8:	48 89 55 d8          	mov    %rdx,-0x28(%rbp)
    51fc:	48 8b 45 e0          	mov    -0x20(%rbp),%rax
    5200:	48 2b 45 e8          	sub    -0x18(%rbp),%rax
    5204:	48 c1 f8 03          	sar    $0x3,%rax
    5208:	48 89 45 f8          	mov    %rax,-0x8(%rbp)
    520c:	48 83 7d f8 00       	cmpq   $0x0,-0x8(%rbp)
    5211:	74 1f                	je     5232 <_ZNSt11__copy_moveILb0ELb1ESt26random_access_iterator_tagE8__copy_mIPSt4pairIPciEEEPT_PKS7_SA_S8_+0x4e>
    5213:	48 8b 45 f8          	mov    -0x8(%rbp),%rax
    5217:	48 8d 14 c5 00 00 00 	lea    0x0(,%rax,8),%rdx
    521e:	00 
    521f:	48 8b 4d e8          	mov    -0x18(%rbp),%rcx
    5223:	48 8b 45 d8          	mov    -0x28(%rbp),%rax
    5227:	48 89 ce             	mov    %rcx,%rsi
    522a:	48 89 c7             	mov    %rax,%rdi
    522d:	e8 9e c0 ff ff       	call   12d0 <memmove@plt>
    5232:	48 8b 45 f8          	mov    -0x8(%rbp),%rax
    5236:	48 8d 14 c5 00 00 00 	lea    0x0(,%rax,8),%rdx
    523d:	00 
    523e:	48 8b 45 d8          	mov    -0x28(%rbp),%rax
    5242:	48 01 d0             	add    %rdx,%rax
    5245:	c9                   	leave  
    5246:	c3                   	ret    

0000000000005247 <_ZNSt20__copy_move_backwardILb0ELb1ESt26random_access_iterator_tagE13__copy_move_bIPSt4pairIPciEEEPT_PKS7_SA_S8_>:
    5247:	f3 0f 1e fa          	endbr64 
    524b:	55                   	push   %rbp
    524c:	48 89 e5             	mov    %rsp,%rbp
    524f:	48 83 ec 30          	sub    $0x30,%rsp
    5253:	48 89 7d e8          	mov    %rdi,-0x18(%rbp)
    5257:	48 89 75 e0          	mov    %rsi,-0x20(%rbp)
    525b:	48 89 55 d8          	mov    %rdx,-0x28(%rbp)
    525f:	48 8b 45 e0          	mov    -0x20(%rbp),%rax
    5263:	48 2b 45 e8          	sub    -0x18(%rbp),%rax
    5267:	48 c1 f8 03          	sar    $0x3,%rax
    526b:	48 89 45 f8          	mov    %rax,-0x8(%rbp)
    526f:	48 83 7d f8 00       	cmpq   $0x0,-0x8(%rbp)
    5274:	74 30                	je     52a6 <_ZNSt20__copy_move_backwardILb0ELb1ESt26random_access_iterator_tagE13__copy_move_bIPSt4pairIPciEEEPT_PKS7_SA_S8_+0x5f>
    5276:	48 8b 45 f8          	mov    -0x8(%rbp),%rax
    527a:	48 8d 14 c5 00 00 00 	lea    0x0(,%rax,8),%rdx
    5281:	00 
    5282:	48 8b 45 f8          	mov    -0x8(%rbp),%rax
    5286:	48 c1 e0 03          	shl    $0x3,%rax
    528a:	48 f7 d8             	neg    %rax
    528d:	48 89 c1             	mov    %rax,%rcx
    5290:	48 8b 45 d8          	mov    -0x28(%rbp),%rax
    5294:	48 01 c1             	add    %rax,%rcx
    5297:	48 8b 45 e8          	mov    -0x18(%rbp),%rax
    529b:	48 89 c6             	mov    %rax,%rsi
    529e:	48 89 cf             	mov    %rcx,%rdi
    52a1:	e8 2a c0 ff ff       	call   12d0 <memmove@plt>
    52a6:	48 8b 45 f8          	mov    -0x8(%rbp),%rax
    52aa:	48 c1 e0 03          	shl    $0x3,%rax
    52ae:	48 f7 d8             	neg    %rax
    52b1:	48 89 c2             	mov    %rax,%rdx
    52b4:	48 8b 45 d8          	mov    -0x28(%rbp),%rax
    52b8:	48 01 d0             	add    %rdx,%rax
    52bb:	c9                   	leave  
    52bc:	c3                   	ret    
    52bd:	90                   	nop

00000000000052be <_ZNSt5queueISt4pairIPciESt5dequeIS2_SaIS2_EEED1Ev>:
    52be:	f3 0f 1e fa          	endbr64 
    52c2:	55                   	push   %rbp
    52c3:	48 89 e5             	mov    %rsp,%rbp
    52c6:	48 83 ec 10          	sub    $0x10,%rsp
    52ca:	48 89 7d f8          	mov    %rdi,-0x8(%rbp)
    52ce:	48 8b 45 f8          	mov    -0x8(%rbp),%rax
    52d2:	48 89 c7             	mov    %rax,%rdi
    52d5:	e8 fa e8 ff ff       	call   3bd4 <_ZNSt5dequeISt4pairIPciESaIS2_EED1Ev>
    52da:	90                   	nop
    52db:	c9                   	leave  
    52dc:	c3                   	ret    

Disassembly of section .fini:

00000000000052e0 <_fini>:
    52e0:	f3 0f 1e fa          	endbr64 
    52e4:	48 83 ec 08          	sub    $0x8,%rsp
    52e8:	48 83 c4 08          	add    $0x8,%rsp
    52ec:	c3                   	ret    
